
code-transmition.elf:     file format elf32-littlearm

Sections:
Idx Name          Size      VMA       LMA       File off  Algn
  0 .isr_vector   00000188  08000000  08000000  00010000  2**0
                  CONTENTS, ALLOC, LOAD, READONLY, DATA
  1 .bin_data     00000020  08000188  08000188  00010188  2**0
                  CONTENTS, ALLOC, LOAD, DATA
  2 .text         00002c84  080001b0  080001b0  000101b0  2**4
                  CONTENTS, ALLOC, LOAD, READONLY, CODE
  3 .rodata       00000490  08002e34  08002e34  00012e34  2**0
                  CONTENTS, ALLOC, LOAD, READONLY, DATA
  4 .ARM.extab    00000000  080032c4  080032c4  00020070  2**0
                  CONTENTS
  5 .ARM          00000000  080032c4  080032c4  00020070  2**0
                  CONTENTS
  6 .preinit_array 00000000  080032c4  080032c4  00020070  2**0
                  CONTENTS, ALLOC, LOAD, DATA
  7 .init_array   00000004  080032c4  080032c4  000132c4  2**2
                  CONTENTS, ALLOC, LOAD, DATA
  8 .fini_array   00000004  080032c8  080032c8  000132c8  2**2
                  CONTENTS, ALLOC, LOAD, DATA
  9 .data         00000070  20000000  080032cc  00020000  2**2
                  CONTENTS, ALLOC, LOAD, DATA
 10 .bss          00000254  20000070  0800333c  00020070  2**3
                  ALLOC
 11 ._user_heap_stack 00000604  200002c4  0800333c  000202c4  2**0
                  ALLOC
 12 .ARM.attributes 00000030  00000000  00000000  00020070  2**0
                  CONTENTS, READONLY
 13 .comment      0000007b  00000000  00000000  000200a0  2**0
                  CONTENTS, READONLY
 14 .debug_frame  00000360  00000000  00000000  0002011c  2**2
                  CONTENTS, READONLY, DEBUGGING

Disassembly of section .text:

080001b0 <__do_global_dtors_aux>:
 80001b0:	b510      	push	{r4, lr}
 80001b2:	4c05      	ldr	r4, [pc, #20]	; (80001c8 <__do_global_dtors_aux+0x18>)
 80001b4:	7823      	ldrb	r3, [r4, #0]
 80001b6:	b933      	cbnz	r3, 80001c6 <__do_global_dtors_aux+0x16>
 80001b8:	4b04      	ldr	r3, [pc, #16]	; (80001cc <__do_global_dtors_aux+0x1c>)
 80001ba:	b113      	cbz	r3, 80001c2 <__do_global_dtors_aux+0x12>
 80001bc:	4804      	ldr	r0, [pc, #16]	; (80001d0 <__do_global_dtors_aux+0x20>)
 80001be:	f3af 8000 	nop.w
 80001c2:	2301      	movs	r3, #1
 80001c4:	7023      	strb	r3, [r4, #0]
 80001c6:	bd10      	pop	{r4, pc}
 80001c8:	20000070 	.word	0x20000070
 80001cc:	00000000 	.word	0x00000000
 80001d0:	08002e1c 	.word	0x08002e1c

080001d4 <frame_dummy>:
 80001d4:	b508      	push	{r3, lr}
 80001d6:	4b03      	ldr	r3, [pc, #12]	; (80001e4 <frame_dummy+0x10>)
 80001d8:	b11b      	cbz	r3, 80001e2 <frame_dummy+0xe>
 80001da:	4903      	ldr	r1, [pc, #12]	; (80001e8 <frame_dummy+0x14>)
 80001dc:	4803      	ldr	r0, [pc, #12]	; (80001ec <frame_dummy+0x18>)
 80001de:	f3af 8000 	nop.w
 80001e2:	bd08      	pop	{r3, pc}
 80001e4:	00000000 	.word	0x00000000
 80001e8:	20000074 	.word	0x20000074
 80001ec:	08002e1c 	.word	0x08002e1c

080001f0 <strlen>:
 80001f0:	4603      	mov	r3, r0
 80001f2:	f813 2b01 	ldrb.w	r2, [r3], #1
 80001f6:	2a00      	cmp	r2, #0
 80001f8:	d1fb      	bne.n	80001f2 <strlen+0x2>
 80001fa:	1a18      	subs	r0, r3, r0
 80001fc:	3801      	subs	r0, #1
 80001fe:	4770      	bx	lr

08000200 <memchr>:
 8000200:	f001 01ff 	and.w	r1, r1, #255	; 0xff
 8000204:	2a10      	cmp	r2, #16
 8000206:	db2b      	blt.n	8000260 <memchr+0x60>
 8000208:	f010 0f07 	tst.w	r0, #7
 800020c:	d008      	beq.n	8000220 <memchr+0x20>
 800020e:	f810 3b01 	ldrb.w	r3, [r0], #1
 8000212:	3a01      	subs	r2, #1
 8000214:	428b      	cmp	r3, r1
 8000216:	d02d      	beq.n	8000274 <memchr+0x74>
 8000218:	f010 0f07 	tst.w	r0, #7
 800021c:	b342      	cbz	r2, 8000270 <memchr+0x70>
 800021e:	d1f6      	bne.n	800020e <memchr+0xe>
 8000220:	b4f0      	push	{r4, r5, r6, r7}
 8000222:	ea41 2101 	orr.w	r1, r1, r1, lsl #8
 8000226:	ea41 4101 	orr.w	r1, r1, r1, lsl #16
 800022a:	f022 0407 	bic.w	r4, r2, #7
 800022e:	f07f 0700 	mvns.w	r7, #0
 8000232:	2300      	movs	r3, #0
 8000234:	e8f0 5602 	ldrd	r5, r6, [r0], #8
 8000238:	3c08      	subs	r4, #8
 800023a:	ea85 0501 	eor.w	r5, r5, r1
 800023e:	ea86 0601 	eor.w	r6, r6, r1
 8000242:	fa85 f547 	uadd8	r5, r5, r7
 8000246:	faa3 f587 	sel	r5, r3, r7
 800024a:	fa86 f647 	uadd8	r6, r6, r7
 800024e:	faa5 f687 	sel	r6, r5, r7
 8000252:	b98e      	cbnz	r6, 8000278 <memchr+0x78>
 8000254:	d1ee      	bne.n	8000234 <memchr+0x34>
 8000256:	bcf0      	pop	{r4, r5, r6, r7}
 8000258:	f001 01ff 	and.w	r1, r1, #255	; 0xff
 800025c:	f002 0207 	and.w	r2, r2, #7
 8000260:	b132      	cbz	r2, 8000270 <memchr+0x70>
 8000262:	f810 3b01 	ldrb.w	r3, [r0], #1
 8000266:	3a01      	subs	r2, #1
 8000268:	ea83 0301 	eor.w	r3, r3, r1
 800026c:	b113      	cbz	r3, 8000274 <memchr+0x74>
 800026e:	d1f8      	bne.n	8000262 <memchr+0x62>
 8000270:	2000      	movs	r0, #0
 8000272:	4770      	bx	lr
 8000274:	3801      	subs	r0, #1
 8000276:	4770      	bx	lr
 8000278:	2d00      	cmp	r5, #0
 800027a:	bf06      	itte	eq
 800027c:	4635      	moveq	r5, r6
 800027e:	3803      	subeq	r0, #3
 8000280:	3807      	subne	r0, #7
 8000282:	f015 0f01 	tst.w	r5, #1
 8000286:	d107      	bne.n	8000298 <memchr+0x98>
 8000288:	3001      	adds	r0, #1
 800028a:	f415 7f80 	tst.w	r5, #256	; 0x100
 800028e:	bf02      	ittt	eq
 8000290:	3001      	addeq	r0, #1
 8000292:	f415 3fc0 	tsteq.w	r5, #98304	; 0x18000
 8000296:	3001      	addeq	r0, #1
 8000298:	bcf0      	pop	{r4, r5, r6, r7}
 800029a:	3801      	subs	r0, #1
 800029c:	4770      	bx	lr
 800029e:	bf00      	nop

080002a0 <crc32>:
 80002a0:	b570      	push	{r4, r5, r6, lr}
 80002a2:	4e0c      	ldr	r6, [pc, #48]	; (80002d4 <crc32+0x34>)
 80002a4:	4401      	add	r1, r0
 80002a6:	f04f 33ff 	mov.w	r3, #4294967295
 80002aa:	4288      	cmp	r0, r1
 80002ac:	d101      	bne.n	80002b2 <crc32+0x12>
 80002ae:	43d8      	mvns	r0, r3
 80002b0:	bd70      	pop	{r4, r5, r6, pc}
 80002b2:	f810 4b01 	ldrb.w	r4, [r0], #1
 80002b6:	2208      	movs	r2, #8
 80002b8:	ea84 0503 	eor.w	r5, r4, r3
 80002bc:	f015 0f01 	tst.w	r5, #1
 80002c0:	ea4f 0353 	mov.w	r3, r3, lsr #1
 80002c4:	bf18      	it	ne
 80002c6:	4073      	eorne	r3, r6
 80002c8:	3a01      	subs	r2, #1
 80002ca:	ea4f 0454 	mov.w	r4, r4, lsr #1
 80002ce:	d1f3      	bne.n	80002b8 <crc32+0x18>
 80002d0:	e7eb      	b.n	80002aa <crc32+0xa>
 80002d2:	bf00      	nop
 80002d4:	edb88320 	.word	0xedb88320

080002d8 <validate_program>:
 80002d8:	b510      	push	{r4, lr}
 80002da:	4614      	mov	r4, r2
 80002dc:	f7ff ffe0 	bl	80002a0 <crc32>
 80002e0:	1b03      	subs	r3, r0, r4
 80002e2:	4258      	negs	r0, r3
 80002e4:	4158      	adcs	r0, r3
 80002e6:	bd10      	pop	{r4, pc}

080002e8 <decrypt>:
 80002e8:	f002 b925 	b.w	8002536 <AES_CBC_decrypt_buffer>

080002ec <encrypt>:
 80002ec:	f002 b8f9 	b.w	80024e2 <AES_CBC_encrypt_buffer>

080002f0 <SystemClock_Config>:
 80002f0:	b530      	push	{r4, r5, lr}
 80002f2:	b09f      	sub	sp, #124	; 0x7c
 80002f4:	2224      	movs	r2, #36	; 0x24
 80002f6:	2100      	movs	r1, #0
 80002f8:	a806      	add	r0, sp, #24
 80002fa:	f002 f9a5 	bl	8002648 <memset>
 80002fe:	2214      	movs	r2, #20
 8000300:	2100      	movs	r1, #0
 8000302:	4668      	mov	r0, sp
 8000304:	f002 f9a0 	bl	8002648 <memset>
 8000308:	223c      	movs	r2, #60	; 0x3c
 800030a:	eb0d 0002 	add.w	r0, sp, r2
 800030e:	2100      	movs	r1, #0
 8000310:	f002 f99a 	bl	8002648 <memset>
 8000314:	2302      	movs	r3, #2
 8000316:	2400      	movs	r4, #0
 8000318:	9305      	str	r3, [sp, #20]
 800031a:	2501      	movs	r5, #1
 800031c:	2310      	movs	r3, #16
 800031e:	a805      	add	r0, sp, #20
 8000320:	e9cd 5309 	strd	r5, r3, [sp, #36]	; 0x24
 8000324:	f000 ff9a 	bl	800125c <HAL_RCC_OscConfig>
 8000328:	230f      	movs	r3, #15
 800032a:	4621      	mov	r1, r4
 800032c:	4668      	mov	r0, sp
 800032e:	e9cd 3400 	strd	r3, r4, [sp]
 8000332:	e9cd 4402 	strd	r4, r4, [sp, #8]
 8000336:	9404      	str	r4, [sp, #16]
 8000338:	f001 fa4a 	bl	80017d0 <HAL_RCC_ClockConfig>
 800033c:	a80f      	add	r0, sp, #60	; 0x3c
 800033e:	950f      	str	r5, [sp, #60]	; 0x3c
 8000340:	9411      	str	r4, [sp, #68]	; 0x44
 8000342:	f001 fb21 	bl	8001988 <HAL_RCCEx_PeriphCLKConfig>
 8000346:	b01f      	add	sp, #124	; 0x7c
 8000348:	bd30      	pop	{r4, r5, pc}
	...

0800034c <main>:
 800034c:	e92d 4ff0 	stmdb	sp!, {r4, r5, r6, r7, r8, r9, sl, fp, lr}
 8000350:	4cb5      	ldr	r4, [pc, #724]	; (8000628 <main+0x2dc>)
 8000352:	49b6      	ldr	r1, [pc, #728]	; (800062c <main+0x2e0>)
 8000354:	f2ad 4d24 	subw	sp, sp, #1060	; 0x424
 8000358:	4620      	mov	r0, r4
 800035a:	f000 f9b0 	bl	80006be <readMetaInfo>
 800035e:	49b4      	ldr	r1, [pc, #720]	; (8000630 <main+0x2e4>)
 8000360:	48b4      	ldr	r0, [pc, #720]	; (8000634 <main+0x2e8>)
 8000362:	f000 f9af 	bl	80006c4 <readKey>
 8000366:	49b3      	ldr	r1, [pc, #716]	; (8000634 <main+0x2e8>)
 8000368:	48b3      	ldr	r0, [pc, #716]	; (8000638 <main+0x2ec>)
 800036a:	f104 023a 	add.w	r2, r4, #58	; 0x3a
 800036e:	f002 f8a7 	bl	80024c0 <AES_init_ctx_iv>
 8000372:	f000 fc97 	bl	8000ca4 <HAL_Init>
 8000376:	f7ff ffbb 	bl	80002f0 <SystemClock_Config>
 800037a:	4bb0      	ldr	r3, [pc, #704]	; (800063c <main+0x2f0>)
 800037c:	48b0      	ldr	r0, [pc, #704]	; (8000640 <main+0x2f4>)
 800037e:	695a      	ldr	r2, [r3, #20]
 8000380:	f442 3200 	orr.w	r2, r2, #131072	; 0x20000
 8000384:	615a      	str	r2, [r3, #20]
 8000386:	695b      	ldr	r3, [r3, #20]
 8000388:	4aae      	ldr	r2, [pc, #696]	; (8000644 <main+0x2f8>)
 800038a:	f403 3300 	and.w	r3, r3, #131072	; 0x20000
 800038e:	9302      	str	r3, [sp, #8]
 8000390:	9b02      	ldr	r3, [sp, #8]
 8000392:	f44f 33e1 	mov.w	r3, #115200	; 0x1c200
 8000396:	e9c0 2300 	strd	r2, r3, [r0]
 800039a:	2300      	movs	r3, #0
 800039c:	220c      	movs	r2, #12
 800039e:	e9c0 2305 	strd	r2, r3, [r0, #20]
 80003a2:	e9c0 3302 	strd	r3, r3, [r0, #8]
 80003a6:	6103      	str	r3, [r0, #16]
 80003a8:	e9c0 3307 	strd	r3, r3, [r0, #28]
 80003ac:	2310      	movs	r3, #16
 80003ae:	6243      	str	r3, [r0, #36]	; 0x24
 80003b0:	f44f 5380 	mov.w	r3, #4096	; 0x1000
 80003b4:	6383      	str	r3, [r0, #56]	; 0x38
 80003b6:	f001 fe9b 	bl	80020f0 <HAL_UART_Init>
 80003ba:	f000 fc11 	bl	8000be0 <startSession>
 80003be:	4625      	mov	r5, r4
 80003c0:	b150      	cbz	r0, 80003d8 <main+0x8c>
 80003c2:	6de2      	ldr	r2, [r4, #92]	; 0x5c
 80003c4:	f8d4 104a 	ldr.w	r1, [r4, #74]	; 0x4a
 80003c8:	489f      	ldr	r0, [pc, #636]	; (8000648 <main+0x2fc>)
 80003ca:	f7ff ff85 	bl	80002d8 <validate_program>
 80003ce:	b900      	cbnz	r0, 80003d2 <main+0x86>
 80003d0:	e7fe      	b.n	80003d0 <main+0x84>
 80003d2:	489d      	ldr	r0, [pc, #628]	; (8000648 <main+0x2fc>)
 80003d4:	f000 f9a0 	bl	8000718 <bootloader_jump_to_user_app>
 80003d8:	4f9c      	ldr	r7, [pc, #624]	; (800064c <main+0x300>)
 80003da:	f44f 6661 	mov.w	r6, #3600	; 0xe10
 80003de:	4630      	mov	r0, r6
 80003e0:	f000 fbcb 	bl	8000b7a <sendReadyToNextCommand>
 80003e4:	4a9a      	ldr	r2, [pc, #616]	; (8000650 <main+0x304>)
 80003e6:	a903      	add	r1, sp, #12
 80003e8:	a847      	add	r0, sp, #284	; 0x11c
 80003ea:	f000 fb57 	bl	8000a9c <receiveData>
 80003ee:	9b03      	ldr	r3, [sp, #12]
 80003f0:	2b07      	cmp	r3, #7
 80003f2:	d103      	bne.n	80003fc <main+0xb0>
 80003f4:	9847      	ldr	r0, [sp, #284]	; 0x11c
 80003f6:	f000 f97d 	bl	80006f4 <changeSpeed>
 80003fa:	e7f0      	b.n	80003de <main+0x92>
 80003fc:	2b08      	cmp	r3, #8
 80003fe:	d16d      	bne.n	80004dc <main+0x190>
 8000400:	9e47      	ldr	r6, [sp, #284]	; 0x11c
 8000402:	9903      	ldr	r1, [sp, #12]
 8000404:	290a      	cmp	r1, #10
 8000406:	d10d      	bne.n	8000424 <main+0xd8>
 8000408:	2250      	movs	r2, #80	; 0x50
 800040a:	a803      	add	r0, sp, #12
 800040c:	f000 fa68 	bl	80008e0 <makeHeader>
 8000410:	2250      	movs	r2, #80	; 0x50
 8000412:	4985      	ldr	r1, [pc, #532]	; (8000628 <main+0x2dc>)
 8000414:	a847      	add	r0, sp, #284	; 0x11c
 8000416:	f002 f8f3 	bl	8002600 <memcpy>
 800041a:	4632      	mov	r2, r6
 800041c:	a947      	add	r1, sp, #284	; 0x11c
 800041e:	a803      	add	r0, sp, #12
 8000420:	f000 fade 	bl	80009e0 <sendData>
 8000424:	9c03      	ldr	r4, [sp, #12]
 8000426:	2c0d      	cmp	r4, #13
 8000428:	d001      	beq.n	800042e <main+0xe2>
 800042a:	2c0f      	cmp	r4, #15
 800042c:	d139      	bne.n	80004a2 <main+0x156>
 800042e:	4a89      	ldr	r2, [pc, #548]	; (8000654 <main+0x308>)
 8000430:	4980      	ldr	r1, [pc, #512]	; (8000634 <main+0x2e8>)
 8000432:	a807      	add	r0, sp, #28
 8000434:	f002 f844 	bl	80024c0 <AES_init_ctx_iv>
 8000438:	2c0d      	cmp	r4, #13
 800043a:	f040 812e 	bne.w	800069a <main+0x34e>
 800043e:	4621      	mov	r1, r4
 8000440:	2210      	movs	r2, #16
 8000442:	a803      	add	r0, sp, #12
 8000444:	f000 fa4c 	bl	80008e0 <makeHeader>
 8000448:	4b80      	ldr	r3, [pc, #512]	; (800064c <main+0x300>)
 800044a:	ac47      	add	r4, sp, #284	; 0x11c
 800044c:	f103 0c10 	add.w	ip, r3, #16
 8000450:	6818      	ldr	r0, [r3, #0]
 8000452:	6859      	ldr	r1, [r3, #4]
 8000454:	4622      	mov	r2, r4
 8000456:	c203      	stmia	r2!, {r0, r1}
 8000458:	3308      	adds	r3, #8
 800045a:	4563      	cmp	r3, ip
 800045c:	4614      	mov	r4, r2
 800045e:	d1f7      	bne.n	8000450 <main+0x104>
 8000460:	2210      	movs	r2, #16
 8000462:	a947      	add	r1, sp, #284	; 0x11c
 8000464:	a807      	add	r0, sp, #28
 8000466:	f7ff ff41 	bl	80002ec <encrypt>
 800046a:	a947      	add	r1, sp, #284	; 0x11c
 800046c:	4632      	mov	r2, r6
 800046e:	a803      	add	r0, sp, #12
 8000470:	f000 fab6 	bl	80009e0 <sendData>
 8000474:	f8d5 304a 	ldr.w	r3, [r5, #74]	; 0x4a
 8000478:	4973      	ldr	r1, [pc, #460]	; (8000648 <main+0x2fc>)
 800047a:	f103 6300 	add.w	r3, r3, #134217728	; 0x8000000
 800047e:	f503 4381 	add.w	r3, r3, #16512	; 0x4080
 8000482:	2200      	movs	r2, #0
 8000484:	1a5c      	subs	r4, r3, r1
 8000486:	f5a1 7880 	sub.w	r8, r1, #256	; 0x100
 800048a:	4294      	cmp	r4, r2
 800048c:	d83d      	bhi.n	800050a <main+0x1be>
 800048e:	2200      	movs	r2, #0
 8000490:	210e      	movs	r1, #14
 8000492:	a803      	add	r0, sp, #12
 8000494:	f000 fa24 	bl	80008e0 <makeHeader>
 8000498:	4632      	mov	r2, r6
 800049a:	a947      	add	r1, sp, #284	; 0x11c
 800049c:	a803      	add	r0, sp, #12
 800049e:	f000 fa9f 	bl	80009e0 <sendData>
 80004a2:	9b03      	ldr	r3, [sp, #12]
 80004a4:	2b0c      	cmp	r3, #12
 80004a6:	d152      	bne.n	800054e <main+0x202>
 80004a8:	2210      	movs	r2, #16
 80004aa:	a947      	add	r1, sp, #284	; 0x11c
 80004ac:	4862      	ldr	r0, [pc, #392]	; (8000638 <main+0x2ec>)
 80004ae:	f7ff ff1b 	bl	80002e8 <decrypt>
 80004b2:	ab47      	add	r3, sp, #284	; 0x11c
 80004b4:	cb03      	ldmia	r3!, {r0, r1}
 80004b6:	6038      	str	r0, [r7, #0]
 80004b8:	6818      	ldr	r0, [r3, #0]
 80004ba:	9b4a      	ldr	r3, [sp, #296]	; 0x128
 80004bc:	6079      	str	r1, [r7, #4]
 80004be:	60b8      	str	r0, [r7, #8]
 80004c0:	2108      	movs	r1, #8
 80004c2:	65eb      	str	r3, [r5, #92]	; 0x5c
 80004c4:	4864      	ldr	r0, [pc, #400]	; (8000658 <main+0x30c>)
 80004c6:	f7ff feeb 	bl	80002a0 <crc32>
 80004ca:	6d2b      	ldr	r3, [r5, #80]	; 0x50
 80004cc:	6daa      	ldr	r2, [r5, #88]	; 0x58
 80004ce:	6d69      	ldr	r1, [r5, #84]	; 0x54
 80004d0:	4298      	cmp	r0, r3
 80004d2:	d039      	beq.n	8000548 <main+0x1fc>
 80004d4:	4861      	ldr	r0, [pc, #388]	; (800065c <main+0x310>)
 80004d6:	f000 fb5e 	bl	8000b96 <HAL_printf>
 80004da:	e7fe      	b.n	80004da <main+0x18e>
 80004dc:	2b09      	cmp	r3, #9
 80004de:	d103      	bne.n	80004e8 <main+0x19c>
 80004e0:	4859      	ldr	r0, [pc, #356]	; (8000648 <main+0x2fc>)
 80004e2:	f000 f919 	bl	8000718 <bootloader_jump_to_user_app>
 80004e6:	e7fe      	b.n	80004e6 <main+0x19a>
 80004e8:	2b0b      	cmp	r3, #11
 80004ea:	d18a      	bne.n	8000402 <main+0xb6>
 80004ec:	a947      	add	r1, sp, #284	; 0x11c
 80004ee:	2250      	movs	r2, #80	; 0x50
 80004f0:	484d      	ldr	r0, [pc, #308]	; (8000628 <main+0x2dc>)
 80004f2:	f002 f885 	bl	8002600 <memcpy>
 80004f6:	4a57      	ldr	r2, [pc, #348]	; (8000654 <main+0x308>)
 80004f8:	494e      	ldr	r1, [pc, #312]	; (8000634 <main+0x2e8>)
 80004fa:	484f      	ldr	r0, [pc, #316]	; (8000638 <main+0x2ec>)
 80004fc:	f001 ffe0 	bl	80024c0 <AES_init_ctx_iv>
 8000500:	4954      	ldr	r1, [pc, #336]	; (8000654 <main+0x308>)
 8000502:	4857      	ldr	r0, [pc, #348]	; (8000660 <main+0x314>)
 8000504:	f000 fb47 	bl	8000b96 <HAL_printf>
 8000508:	e77b      	b.n	8000402 <main+0xb6>
 800050a:	f502 7980 	add.w	r9, r2, #256	; 0x100
 800050e:	45a1      	cmp	r9, r4
 8000510:	bf94      	ite	ls
 8000512:	ebc2 0a09 	rsbls	sl, r2, r9
 8000516:	ebc2 0a04 	rsbhi	sl, r2, r4
 800051a:	4652      	mov	r2, sl
 800051c:	2103      	movs	r1, #3
 800051e:	a803      	add	r0, sp, #12
 8000520:	f000 f9de 	bl	80008e0 <makeHeader>
 8000524:	4652      	mov	r2, sl
 8000526:	eb08 0109 	add.w	r1, r8, r9
 800052a:	a847      	add	r0, sp, #284	; 0x11c
 800052c:	f002 f868 	bl	8002600 <memcpy>
 8000530:	4652      	mov	r2, sl
 8000532:	a947      	add	r1, sp, #284	; 0x11c
 8000534:	a807      	add	r0, sp, #28
 8000536:	f7ff fed9 	bl	80002ec <encrypt>
 800053a:	4632      	mov	r2, r6
 800053c:	a947      	add	r1, sp, #284	; 0x11c
 800053e:	a803      	add	r0, sp, #12
 8000540:	f000 fa4e 	bl	80009e0 <sendData>
 8000544:	464a      	mov	r2, r9
 8000546:	e7a0      	b.n	800048a <main+0x13e>
 8000548:	4846      	ldr	r0, [pc, #280]	; (8000664 <main+0x318>)
 800054a:	f000 fb24 	bl	8000b96 <HAL_printf>
 800054e:	9b03      	ldr	r3, [sp, #12]
 8000550:	2b03      	cmp	r3, #3
 8000552:	f47f af44 	bne.w	80003de <main+0x92>
 8000556:	f8dd 811c 	ldr.w	r8, [sp, #284]	; 0x11c
 800055a:	4843      	ldr	r0, [pc, #268]	; (8000668 <main+0x31c>)
 800055c:	4641      	mov	r1, r8
 800055e:	f000 fb1a 	bl	8000b96 <HAL_printf>
 8000562:	f000 fc3b 	bl	8000ddc <HAL_FLASH_Unlock>
 8000566:	bb08      	cbnz	r0, 80005ac <main+0x260>
 8000568:	4840      	ldr	r0, [pc, #256]	; (800066c <main+0x320>)
 800056a:	f000 fb14 	bl	8000b96 <HAL_printf>
 800056e:	4641      	mov	r1, r8
 8000570:	4835      	ldr	r0, [pc, #212]	; (8000648 <main+0x2fc>)
 8000572:	f000 f8b0 	bl	80006d6 <erasePages>
 8000576:	b1d8      	cbz	r0, 80005b0 <main+0x264>
 8000578:	4933      	ldr	r1, [pc, #204]	; (8000648 <main+0x2fc>)
 800057a:	483d      	ldr	r0, [pc, #244]	; (8000670 <main+0x324>)
 800057c:	f000 fb0b 	bl	8000b96 <HAL_printf>
 8000580:	4a2a      	ldr	r2, [pc, #168]	; (800062c <main+0x2e0>)
 8000582:	4829      	ldr	r0, [pc, #164]	; (8000628 <main+0x2dc>)
 8000584:	2160      	movs	r1, #96	; 0x60
 8000586:	f000 f8d4 	bl	8000732 <storeBlock>
 800058a:	2400      	movs	r4, #0
 800058c:	4544      	cmp	r4, r8
 800058e:	d313      	bcc.n	80005b8 <main+0x26c>
 8000590:	6dea      	ldr	r2, [r5, #92]	; 0x5c
 8000592:	f8d5 104a 	ldr.w	r1, [r5, #74]	; 0x4a
 8000596:	482c      	ldr	r0, [pc, #176]	; (8000648 <main+0x2fc>)
 8000598:	f7ff fe9e 	bl	80002d8 <validate_program>
 800059c:	2800      	cmp	r0, #0
 800059e:	d075      	beq.n	800068c <main+0x340>
 80005a0:	4834      	ldr	r0, [pc, #208]	; (8000674 <main+0x328>)
 80005a2:	f000 faf8 	bl	8000b96 <HAL_printf>
 80005a6:	f000 fc2b 	bl	8000e00 <HAL_FLASH_Lock>
 80005aa:	e718      	b.n	80003de <main+0x92>
 80005ac:	4832      	ldr	r0, [pc, #200]	; (8000678 <main+0x32c>)
 80005ae:	e7dc      	b.n	800056a <main+0x21e>
 80005b0:	4832      	ldr	r0, [pc, #200]	; (800067c <main+0x330>)
 80005b2:	f000 faf0 	bl	8000b96 <HAL_printf>
 80005b6:	e7e3      	b.n	8000580 <main+0x234>
 80005b8:	f504 7380 	add.w	r3, r4, #256	; 0x100
 80005bc:	4543      	cmp	r3, r8
 80005be:	9300      	str	r3, [sp, #0]
 80005c0:	bf28      	it	cs
 80005c2:	4643      	movcs	r3, r8
 80005c4:	4619      	mov	r1, r3
 80005c6:	4632      	mov	r2, r6
 80005c8:	4620      	mov	r0, r4
 80005ca:	469a      	mov	sl, r3
 80005cc:	f000 fac4 	bl	8000b58 <askForNextBlock>
 80005d0:	4632      	mov	r2, r6
 80005d2:	a903      	add	r1, sp, #12
 80005d4:	a847      	add	r0, sp, #284	; 0x11c
 80005d6:	f000 fa61 	bl	8000a9c <receiveData>
 80005da:	ebaa 0b04 	sub.w	fp, sl, r4
 80005de:	9001      	str	r0, [sp, #4]
 80005e0:	465a      	mov	r2, fp
 80005e2:	a947      	add	r1, sp, #284	; 0x11c
 80005e4:	4814      	ldr	r0, [pc, #80]	; (8000638 <main+0x2ec>)
 80005e6:	f7ff fe7f 	bl	80002e8 <decrypt>
 80005ea:	9b01      	ldr	r3, [sp, #4]
 80005ec:	ea4f 2914 	mov.w	r9, r4, lsr #8
 80005f0:	2b00      	cmp	r3, #0
 80005f2:	d155      	bne.n	80006a0 <main+0x354>
 80005f4:	4622      	mov	r2, r4
 80005f6:	f104 6400 	add.w	r4, r4, #134217728	; 0x8000000
 80005fa:	4653      	mov	r3, sl
 80005fc:	4649      	mov	r1, r9
 80005fe:	f504 4481 	add.w	r4, r4, #16512	; 0x4080
 8000602:	481f      	ldr	r0, [pc, #124]	; (8000680 <main+0x334>)
 8000604:	f000 fac7 	bl	8000b96 <HAL_printf>
 8000608:	4622      	mov	r2, r4
 800060a:	4659      	mov	r1, fp
 800060c:	a847      	add	r0, sp, #284	; 0x11c
 800060e:	f000 f890 	bl	8000732 <storeBlock>
 8000612:	4622      	mov	r2, r4
 8000614:	4649      	mov	r1, r9
 8000616:	b920      	cbnz	r0, 8000622 <main+0x2d6>
 8000618:	481a      	ldr	r0, [pc, #104]	; (8000684 <main+0x338>)
 800061a:	f000 fabc 	bl	8000b96 <HAL_printf>
 800061e:	9c00      	ldr	r4, [sp, #0]
 8000620:	e7b4      	b.n	800058c <main+0x240>
 8000622:	4819      	ldr	r0, [pc, #100]	; (8000688 <main+0x33c>)
 8000624:	e7f9      	b.n	800061a <main+0x2ce>
 8000626:	bf00      	nop
 8000628:	2000008c 	.word	0x2000008c
 800062c:	08004000 	.word	0x08004000
 8000630:	08000188 	.word	0x08000188
 8000634:	200000ec 	.word	0x200000ec
 8000638:	2000011c 	.word	0x2000011c
 800063c:	40021000 	.word	0x40021000
 8000640:	2000021c 	.word	0x2000021c
 8000644:	40013800 	.word	0x40013800
 8000648:	08004080 	.word	0x08004080
 800064c:	200000dc 	.word	0x200000dc
 8000650:	02255100 	.word	0x02255100
 8000654:	200000c6 	.word	0x200000c6
 8000658:	200000e0 	.word	0x200000e0
 800065c:	08002e42 	.word	0x08002e42
 8000660:	08002e34 	.word	0x08002e34
 8000664:	08002e6b 	.word	0x08002e6b
 8000668:	08002e9c 	.word	0x08002e9c
 800066c:	08002ebb 	.word	0x08002ebb
 8000670:	08002ee5 	.word	0x08002ee5
 8000674:	08003002 	.word	0x08003002
 8000678:	08002ed4 	.word	0x08002ed4
 800067c:	08002f24 	.word	0x08002f24
 8000680:	08002f76 	.word	0x08002f76
 8000684:	08002f92 	.word	0x08002f92
 8000688:	08002fc3 	.word	0x08002fc3
 800068c:	6dea      	ldr	r2, [r5, #92]	; 0x5c
 800068e:	f8d5 104a 	ldr.w	r1, [r5, #74]	; 0x4a
 8000692:	4808      	ldr	r0, [pc, #32]	; (80006b4 <main+0x368>)
 8000694:	f000 fa7f 	bl	8000b96 <HAL_printf>
 8000698:	e7fe      	b.n	8000698 <main+0x34c>
 800069a:	6d69      	ldr	r1, [r5, #84]	; 0x54
 800069c:	6dab      	ldr	r3, [r5, #88]	; 0x58
 800069e:	e6f0      	b.n	8000482 <main+0x136>
 80006a0:	4649      	mov	r1, r9
 80006a2:	4805      	ldr	r0, [pc, #20]	; (80006b8 <main+0x36c>)
 80006a4:	f000 fa77 	bl	8000b96 <HAL_printf>
 80006a8:	2002      	movs	r0, #2
 80006aa:	f20d 4d24 	addw	sp, sp, #1060	; 0x424
 80006ae:	e8bd 8ff0 	ldmia.w	sp!, {r4, r5, r6, r7, r8, r9, sl, fp, pc}
 80006b2:	bf00      	nop
 80006b4:	0800301b 	.word	0x0800301b
 80006b8:	08002f42 	.word	0x08002f42

080006bc <Error_Handler>:
 80006bc:	4770      	bx	lr

080006be <readMetaInfo>:
 80006be:	2260      	movs	r2, #96	; 0x60
 80006c0:	f001 bf9e 	b.w	8002600 <memcpy>

080006c4 <readKey>:
 80006c4:	f101 0320 	add.w	r3, r1, #32
 80006c8:	f851 2b04 	ldr.w	r2, [r1], #4
 80006cc:	f840 2b04 	str.w	r2, [r0], #4
 80006d0:	4299      	cmp	r1, r3
 80006d2:	d1f9      	bne.n	80006c8 <readKey+0x4>
 80006d4:	4770      	bx	lr

080006d6 <erasePages>:
 80006d6:	b51f      	push	{r0, r1, r2, r3, r4, lr}
 80006d8:	0ac9      	lsrs	r1, r1, #11
 80006da:	3101      	adds	r1, #1
 80006dc:	e9cd 0102 	strd	r0, r1, [sp, #8]
 80006e0:	2300      	movs	r3, #0
 80006e2:	4669      	mov	r1, sp
 80006e4:	a801      	add	r0, sp, #4
 80006e6:	9301      	str	r3, [sp, #4]
 80006e8:	f000 fc30 	bl	8000f4c <HAL_FLASHEx_Erase>
 80006ec:	b005      	add	sp, #20
 80006ee:	f85d fb04 	ldr.w	pc, [sp], #4
	...

080006f4 <changeSpeed>:
 80006f4:	b538      	push	{r3, r4, r5, lr}
 80006f6:	4c07      	ldr	r4, [pc, #28]	; (8000714 <changeSpeed+0x20>)
 80006f8:	4605      	mov	r5, r0
 80006fa:	4620      	mov	r0, r4
 80006fc:	f001 fa4a 	bl	8001b94 <HAL_UART_DeInit>
 8000700:	4620      	mov	r0, r4
 8000702:	6065      	str	r5, [r4, #4]
 8000704:	f001 fcf4 	bl	80020f0 <HAL_UART_Init>
 8000708:	b118      	cbz	r0, 8000712 <changeSpeed+0x1e>
 800070a:	e8bd 4038 	ldmia.w	sp!, {r3, r4, r5, lr}
 800070e:	f7ff bfd5 	b.w	80006bc <Error_Handler>
 8000712:	bd38      	pop	{r3, r4, r5, pc}
 8000714:	2000021c 	.word	0x2000021c

08000718 <bootloader_jump_to_user_app>:
 8000718:	6803      	ldr	r3, [r0, #0]
 800071a:	f383 8808 	msr	MSP, r3
 800071e:	6843      	ldr	r3, [r0, #4]
 8000720:	4718      	bx	r3

08000722 <__HAL_to_Status>:
 8000722:	b128      	cbz	r0, 8000730 <__HAL_to_Status+0xe>
 8000724:	2801      	cmp	r0, #1
 8000726:	d003      	beq.n	8000730 <__HAL_to_Status+0xe>
 8000728:	2803      	cmp	r0, #3
 800072a:	bf0c      	ite	eq
 800072c:	2003      	moveq	r0, #3
 800072e:	2002      	movne	r0, #2
 8000730:	4770      	bx	lr

08000732 <storeBlock>:
 8000732:	b5f8      	push	{r3, r4, r5, r6, r7, lr}
 8000734:	4606      	mov	r6, r0
 8000736:	460d      	mov	r5, r1
 8000738:	4617      	mov	r7, r2
 800073a:	2400      	movs	r4, #0
 800073c:	42ac      	cmp	r4, r5
 800073e:	db01      	blt.n	8000744 <storeBlock+0x12>
 8000740:	2000      	movs	r0, #0
 8000742:	bdf8      	pop	{r3, r4, r5, r6, r7, pc}
 8000744:	08a3      	lsrs	r3, r4, #2
 8000746:	19e1      	adds	r1, r4, r7
 8000748:	f856 2023 	ldr.w	r2, [r6, r3, lsl #2]
 800074c:	2002      	movs	r0, #2
 800074e:	2300      	movs	r3, #0
 8000750:	f000 fb88 	bl	8000e64 <HAL_FLASH_Program>
 8000754:	2800      	cmp	r0, #0
 8000756:	d1f4      	bne.n	8000742 <storeBlock+0x10>
 8000758:	3404      	adds	r4, #4
 800075a:	e7ef      	b.n	800073c <storeBlock+0xa>

0800075c <transmit>:
 800075c:	b508      	push	{r3, lr}
 800075e:	4613      	mov	r3, r2
 8000760:	b28a      	uxth	r2, r1
 8000762:	4601      	mov	r1, r0
 8000764:	4803      	ldr	r0, [pc, #12]	; (8000774 <transmit+0x18>)
 8000766:	f001 fbd3 	bl	8001f10 <HAL_UART_Transmit>
 800076a:	e8bd 4008 	ldmia.w	sp!, {r3, lr}
 800076e:	f7ff bfd8 	b.w	8000722 <__HAL_to_Status>
 8000772:	bf00      	nop
 8000774:	2000021c 	.word	0x2000021c

08000778 <receive>:
 8000778:	b513      	push	{r0, r1, r4, lr}
 800077a:	4c0a      	ldr	r4, [pc, #40]	; (80007a4 <receive+0x2c>)
 800077c:	4613      	mov	r3, r2
 800077e:	69e2      	ldr	r2, [r4, #28]
 8000780:	0692      	lsls	r2, r2, #26
 8000782:	d505      	bpl.n	8000790 <receive+0x18>
 8000784:	8ca4      	ldrh	r4, [r4, #36]	; 0x24
 8000786:	b2a4      	uxth	r4, r4
 8000788:	9401      	str	r4, [sp, #4]
 800078a:	9c01      	ldr	r4, [sp, #4]
 800078c:	3401      	adds	r4, #1
 800078e:	9401      	str	r4, [sp, #4]
 8000790:	b28a      	uxth	r2, r1
 8000792:	4601      	mov	r1, r0
 8000794:	4804      	ldr	r0, [pc, #16]	; (80007a8 <receive+0x30>)
 8000796:	f001 fc12 	bl	8001fbe <HAL_UART_Receive>
 800079a:	b002      	add	sp, #8
 800079c:	e8bd 4010 	ldmia.w	sp!, {r4, lr}
 80007a0:	f7ff bfbf 	b.w	8000722 <__HAL_to_Status>
 80007a4:	40013800 	.word	0x40013800
 80007a8:	2000021c 	.word	0x2000021c

080007ac <HAL_MspInit>:
 80007ac:	4b0a      	ldr	r3, [pc, #40]	; (80007d8 <HAL_MspInit+0x2c>)
 80007ae:	699a      	ldr	r2, [r3, #24]
 80007b0:	f042 0201 	orr.w	r2, r2, #1
 80007b4:	619a      	str	r2, [r3, #24]
 80007b6:	699a      	ldr	r2, [r3, #24]
 80007b8:	b082      	sub	sp, #8
 80007ba:	f002 0201 	and.w	r2, r2, #1
 80007be:	9200      	str	r2, [sp, #0]
 80007c0:	9a00      	ldr	r2, [sp, #0]
 80007c2:	69da      	ldr	r2, [r3, #28]
 80007c4:	f042 5280 	orr.w	r2, r2, #268435456	; 0x10000000
 80007c8:	61da      	str	r2, [r3, #28]
 80007ca:	69db      	ldr	r3, [r3, #28]
 80007cc:	f003 5380 	and.w	r3, r3, #268435456	; 0x10000000
 80007d0:	9301      	str	r3, [sp, #4]
 80007d2:	9b01      	ldr	r3, [sp, #4]
 80007d4:	b002      	add	sp, #8
 80007d6:	4770      	bx	lr
 80007d8:	40021000 	.word	0x40021000

080007dc <HAL_UART_MspInit>:
 80007dc:	b510      	push	{r4, lr}
 80007de:	4604      	mov	r4, r0
 80007e0:	b088      	sub	sp, #32
 80007e2:	2214      	movs	r2, #20
 80007e4:	2100      	movs	r1, #0
 80007e6:	a803      	add	r0, sp, #12
 80007e8:	f001 ff2e 	bl	8002648 <memset>
 80007ec:	6822      	ldr	r2, [r4, #0]
 80007ee:	4b13      	ldr	r3, [pc, #76]	; (800083c <HAL_UART_MspInit+0x60>)
 80007f0:	429a      	cmp	r2, r3
 80007f2:	d121      	bne.n	8000838 <HAL_UART_MspInit+0x5c>
 80007f4:	f503 4358 	add.w	r3, r3, #55296	; 0xd800
 80007f8:	2103      	movs	r1, #3
 80007fa:	699a      	ldr	r2, [r3, #24]
 80007fc:	f442 4280 	orr.w	r2, r2, #16384	; 0x4000
 8000800:	619a      	str	r2, [r3, #24]
 8000802:	699a      	ldr	r2, [r3, #24]
 8000804:	f402 4280 	and.w	r2, r2, #16384	; 0x4000
 8000808:	9201      	str	r2, [sp, #4]
 800080a:	9a01      	ldr	r2, [sp, #4]
 800080c:	695a      	ldr	r2, [r3, #20]
 800080e:	f442 3200 	orr.w	r2, r2, #131072	; 0x20000
 8000812:	615a      	str	r2, [r3, #20]
 8000814:	695b      	ldr	r3, [r3, #20]
 8000816:	f403 3300 	and.w	r3, r3, #131072	; 0x20000
 800081a:	9302      	str	r3, [sp, #8]
 800081c:	9b02      	ldr	r3, [sp, #8]
 800081e:	f44f 62c0 	mov.w	r2, #1536	; 0x600
 8000822:	2302      	movs	r3, #2
 8000824:	e9cd 2303 	strd	r2, r3, [sp, #12]
 8000828:	2307      	movs	r3, #7
 800082a:	e9cd 1306 	strd	r1, r3, [sp, #24]
 800082e:	f04f 4090 	mov.w	r0, #1207959552	; 0x48000000
 8000832:	a903      	add	r1, sp, #12
 8000834:	f000 fbd6 	bl	8000fe4 <HAL_GPIO_Init>
 8000838:	b008      	add	sp, #32
 800083a:	bd10      	pop	{r4, pc}
 800083c:	40013800 	.word	0x40013800

08000840 <HAL_UART_MspDeInit>:
 8000840:	6802      	ldr	r2, [r0, #0]
 8000842:	4b07      	ldr	r3, [pc, #28]	; (8000860 <HAL_UART_MspDeInit+0x20>)
 8000844:	429a      	cmp	r2, r3
 8000846:	d10a      	bne.n	800085e <HAL_UART_MspDeInit+0x1e>
 8000848:	4a06      	ldr	r2, [pc, #24]	; (8000864 <HAL_UART_MspDeInit+0x24>)
 800084a:	6993      	ldr	r3, [r2, #24]
 800084c:	f423 4380 	bic.w	r3, r3, #16384	; 0x4000
 8000850:	6193      	str	r3, [r2, #24]
 8000852:	f44f 61c0 	mov.w	r1, #1536	; 0x600
 8000856:	f04f 4090 	mov.w	r0, #1207959552	; 0x48000000
 800085a:	f000 bc89 	b.w	8001170 <HAL_GPIO_DeInit>
 800085e:	4770      	bx	lr
 8000860:	40013800 	.word	0x40013800
 8000864:	40021000 	.word	0x40021000

08000868 <NMI_Handler>:
 8000868:	4770      	bx	lr

0800086a <HardFault_Handler>:
 800086a:	e7fe      	b.n	800086a <HardFault_Handler>

0800086c <MemManage_Handler>:
 800086c:	e7fe      	b.n	800086c <MemManage_Handler>

0800086e <BusFault_Handler>:
 800086e:	e7fe      	b.n	800086e <BusFault_Handler>

08000870 <UsageFault_Handler>:
 8000870:	e7fe      	b.n	8000870 <UsageFault_Handler>

08000872 <SVC_Handler>:
 8000872:	4770      	bx	lr

08000874 <DebugMon_Handler>:
 8000874:	4770      	bx	lr

08000876 <PendSV_Handler>:
 8000876:	4770      	bx	lr

08000878 <SysTick_Handler>:
 8000878:	f000 ba26 	b.w	8000cc8 <HAL_IncTick>

0800087c <_sbrk>:
 800087c:	4b0b      	ldr	r3, [pc, #44]	; (80008ac <_sbrk+0x30>)
 800087e:	6819      	ldr	r1, [r3, #0]
 8000880:	b510      	push	{r4, lr}
 8000882:	4602      	mov	r2, r0
 8000884:	b909      	cbnz	r1, 800088a <_sbrk+0xe>
 8000886:	490a      	ldr	r1, [pc, #40]	; (80008b0 <_sbrk+0x34>)
 8000888:	6019      	str	r1, [r3, #0]
 800088a:	6818      	ldr	r0, [r3, #0]
 800088c:	4909      	ldr	r1, [pc, #36]	; (80008b4 <_sbrk+0x38>)
 800088e:	4c0a      	ldr	r4, [pc, #40]	; (80008b8 <_sbrk+0x3c>)
 8000890:	4402      	add	r2, r0
 8000892:	1b09      	subs	r1, r1, r4
 8000894:	428a      	cmp	r2, r1
 8000896:	d906      	bls.n	80008a6 <_sbrk+0x2a>
 8000898:	f001 fe88 	bl	80025ac <__errno>
 800089c:	230c      	movs	r3, #12
 800089e:	6003      	str	r3, [r0, #0]
 80008a0:	f04f 30ff 	mov.w	r0, #4294967295
 80008a4:	bd10      	pop	{r4, pc}
 80008a6:	601a      	str	r2, [r3, #0]
 80008a8:	e7fc      	b.n	80008a4 <_sbrk+0x28>
 80008aa:	bf00      	nop
 80008ac:	2000010c 	.word	0x2000010c
 80008b0:	200002c8 	.word	0x200002c8
 80008b4:	2000a000 	.word	0x2000a000
 80008b8:	00000400 	.word	0x00000400

080008bc <SystemInit>:
 80008bc:	4b05      	ldr	r3, [pc, #20]	; (80008d4 <SystemInit+0x18>)
 80008be:	f8d3 2088 	ldr.w	r2, [r3, #136]	; 0x88
 80008c2:	f442 0270 	orr.w	r2, r2, #15728640	; 0xf00000
 80008c6:	f8c3 2088 	str.w	r2, [r3, #136]	; 0x88
 80008ca:	f04f 6200 	mov.w	r2, #134217728	; 0x8000000
 80008ce:	609a      	str	r2, [r3, #8]
 80008d0:	4770      	bx	lr
 80008d2:	bf00      	nop
 80008d4:	e000ed00 	.word	0xe000ed00

080008d8 <computeHeaderCrc>:
 80008d8:	210c      	movs	r1, #12
 80008da:	f7ff bce1 	b.w	80002a0 <crc32>
	...

080008e0 <makeHeader>:
 80008e0:	4b05      	ldr	r3, [pc, #20]	; (80008f8 <makeHeader+0x18>)
 80008e2:	b510      	push	{r4, lr}
 80008e4:	681b      	ldr	r3, [r3, #0]
 80008e6:	6001      	str	r1, [r0, #0]
 80008e8:	6042      	str	r2, [r0, #4]
 80008ea:	6083      	str	r3, [r0, #8]
 80008ec:	4604      	mov	r4, r0
 80008ee:	f7ff fff3 	bl	80008d8 <computeHeaderCrc>
 80008f2:	60e0      	str	r0, [r4, #12]
 80008f4:	bd10      	pop	{r4, pc}
 80008f6:	bf00      	nop
 80008f8:	20000110 	.word	0x20000110

080008fc <verifyDataHeader>:
 80008fc:	b510      	push	{r4, lr}
 80008fe:	4604      	mov	r4, r0
 8000900:	f7ff ffea 	bl	80008d8 <computeHeaderCrc>
 8000904:	68e3      	ldr	r3, [r4, #12]
 8000906:	1a18      	subs	r0, r3, r0
 8000908:	bf18      	it	ne
 800090a:	2001      	movne	r0, #1
 800090c:	bd10      	pop	{r4, pc}

0800090e <sendDataHeader>:
 800090e:	b538      	push	{r3, r4, r5, lr}
 8000910:	4604      	mov	r4, r0
 8000912:	460d      	mov	r5, r1
 8000914:	f7ff ffe0 	bl	80008d8 <computeHeaderCrc>
 8000918:	462a      	mov	r2, r5
 800091a:	60e0      	str	r0, [r4, #12]
 800091c:	2110      	movs	r1, #16
 800091e:	4620      	mov	r0, r4
 8000920:	e8bd 4038 	ldmia.w	sp!, {r3, r4, r5, lr}
 8000924:	f7ff bf1a 	b.w	800075c <transmit>

08000928 <sendFullPacket>:
 8000928:	b5f8      	push	{r3, r4, r5, r6, r7, lr}
 800092a:	460d      	mov	r5, r1
 800092c:	4604      	mov	r4, r0
 800092e:	6841      	ldr	r1, [r0, #4]
 8000930:	4628      	mov	r0, r5
 8000932:	4616      	mov	r6, r2
 8000934:	f7ff fcb4 	bl	80002a0 <crc32>
 8000938:	4607      	mov	r7, r0
 800093a:	4620      	mov	r0, r4
 800093c:	f7ff ffcc 	bl	80008d8 <computeHeaderCrc>
 8000940:	6862      	ldr	r2, [r4, #4]
 8000942:	4629      	mov	r1, r5
 8000944:	f105 0010 	add.w	r0, r5, #16
 8000948:	f001 fe65 	bl	8002616 <memmove>
 800094c:	4623      	mov	r3, r4
 800094e:	462a      	mov	r2, r5
 8000950:	f104 0110 	add.w	r1, r4, #16
 8000954:	f853 0b04 	ldr.w	r0, [r3], #4
 8000958:	f842 0b04 	str.w	r0, [r2], #4
 800095c:	428b      	cmp	r3, r1
 800095e:	d1f9      	bne.n	8000954 <sendFullPacket+0x2c>
 8000960:	6863      	ldr	r3, [r4, #4]
 8000962:	442b      	add	r3, r5
 8000964:	4632      	mov	r2, r6
 8000966:	611f      	str	r7, [r3, #16]
 8000968:	6861      	ldr	r1, [r4, #4]
 800096a:	4628      	mov	r0, r5
 800096c:	3114      	adds	r1, #20
 800096e:	e8bd 40f8 	ldmia.w	sp!, {r3, r4, r5, r6, r7, lr}
 8000972:	f7ff bef3 	b.w	800075c <transmit>

08000976 <receiveDataHeader>:
 8000976:	b538      	push	{r3, r4, r5, lr}
 8000978:	2410      	movs	r4, #16
 800097a:	460d      	mov	r5, r1
 800097c:	4622      	mov	r2, r4
 800097e:	2100      	movs	r1, #0
 8000980:	f001 fe62 	bl	8002648 <memset>
 8000984:	462a      	mov	r2, r5
 8000986:	4621      	mov	r1, r4
 8000988:	e8bd 4038 	ldmia.w	sp!, {r3, r4, r5, lr}
 800098c:	f7ff bef4 	b.w	8000778 <receive>

08000990 <receiveFullPacket>:
 8000990:	e92d 41f0 	stmdb	sp!, {r4, r5, r6, r7, r8, lr}
 8000994:	4617      	mov	r7, r2
 8000996:	684a      	ldr	r2, [r1, #4]
 8000998:	460d      	mov	r5, r1
 800099a:	3214      	adds	r2, #20
 800099c:	2100      	movs	r1, #0
 800099e:	4604      	mov	r4, r0
 80009a0:	461e      	mov	r6, r3
 80009a2:	f001 fe51 	bl	8002648 <memset>
 80009a6:	6869      	ldr	r1, [r5, #4]
 80009a8:	9a06      	ldr	r2, [sp, #24]
 80009aa:	3114      	adds	r1, #20
 80009ac:	4620      	mov	r0, r4
 80009ae:	f7ff fee3 	bl	8000778 <receive>
 80009b2:	4621      	mov	r1, r4
 80009b4:	4680      	mov	r8, r0
 80009b6:	4633      	mov	r3, r6
 80009b8:	f104 0210 	add.w	r2, r4, #16
 80009bc:	f851 0b04 	ldr.w	r0, [r1], #4
 80009c0:	f843 0b04 	str.w	r0, [r3], #4
 80009c4:	4291      	cmp	r1, r2
 80009c6:	d1f9      	bne.n	80009bc <receiveFullPacket+0x2c>
 80009c8:	686b      	ldr	r3, [r5, #4]
 80009ca:	4423      	add	r3, r4
 80009cc:	4620      	mov	r0, r4
 80009ce:	691b      	ldr	r3, [r3, #16]
 80009d0:	603b      	str	r3, [r7, #0]
 80009d2:	686a      	ldr	r2, [r5, #4]
 80009d4:	3204      	adds	r2, #4
 80009d6:	f001 fe1e 	bl	8002616 <memmove>
 80009da:	4640      	mov	r0, r8
 80009dc:	e8bd 81f0 	ldmia.w	sp!, {r4, r5, r6, r7, r8, pc}

080009e0 <sendData>:
 80009e0:	e92d 41ff 	stmdb	sp!, {r0, r1, r2, r3, r4, r5, r6, r7, r8, lr}
 80009e4:	4d26      	ldr	r5, [pc, #152]	; (8000a80 <sendData+0xa0>)
 80009e6:	4604      	mov	r4, r0
 80009e8:	460f      	mov	r7, r1
 80009ea:	4616      	mov	r6, r2
 80009ec:	4631      	mov	r1, r6
 80009ee:	4620      	mov	r0, r4
 80009f0:	f7ff ff8d 	bl	800090e <sendDataHeader>
 80009f4:	4601      	mov	r1, r0
 80009f6:	2800      	cmp	r0, #0
 80009f8:	d1f8      	bne.n	80009ec <sendData+0xc>
 80009fa:	2210      	movs	r2, #16
 80009fc:	4668      	mov	r0, sp
 80009fe:	f001 fe23 	bl	8002648 <memset>
 8000a02:	4631      	mov	r1, r6
 8000a04:	4668      	mov	r0, sp
 8000a06:	f7ff ffb6 	bl	8000976 <receiveDataHeader>
 8000a0a:	4680      	mov	r8, r0
 8000a0c:	4668      	mov	r0, sp
 8000a0e:	f7ff ff75 	bl	80008fc <verifyDataHeader>
 8000a12:	2800      	cmp	r0, #0
 8000a14:	d1ea      	bne.n	80009ec <sendData+0xc>
 8000a16:	9a02      	ldr	r2, [sp, #8]
 8000a18:	682b      	ldr	r3, [r5, #0]
 8000a1a:	3201      	adds	r2, #1
 8000a1c:	429a      	cmp	r2, r3
 8000a1e:	d102      	bne.n	8000a26 <sendData+0x46>
 8000a20:	f1b8 0f00 	cmp.w	r8, #0
 8000a24:	d1e2      	bne.n	80009ec <sendData+0xc>
 8000a26:	3301      	adds	r3, #1
 8000a28:	602b      	str	r3, [r5, #0]
 8000a2a:	6862      	ldr	r2, [r4, #4]
 8000a2c:	b31a      	cbz	r2, 8000a76 <sendData+0x96>
 8000a2e:	6821      	ldr	r1, [r4, #0]
 8000a30:	4620      	mov	r0, r4
 8000a32:	f7ff ff55 	bl	80008e0 <makeHeader>
 8000a36:	4639      	mov	r1, r7
 8000a38:	4632      	mov	r2, r6
 8000a3a:	4620      	mov	r0, r4
 8000a3c:	f7ff ff74 	bl	8000928 <sendFullPacket>
 8000a40:	4601      	mov	r1, r0
 8000a42:	2800      	cmp	r0, #0
 8000a44:	d1f7      	bne.n	8000a36 <sendData+0x56>
 8000a46:	2210      	movs	r2, #16
 8000a48:	4668      	mov	r0, sp
 8000a4a:	f001 fdfd 	bl	8002648 <memset>
 8000a4e:	4631      	mov	r1, r6
 8000a50:	4668      	mov	r0, sp
 8000a52:	f7ff ff90 	bl	8000976 <receiveDataHeader>
 8000a56:	4680      	mov	r8, r0
 8000a58:	4668      	mov	r0, sp
 8000a5a:	f7ff ff4f 	bl	80008fc <verifyDataHeader>
 8000a5e:	2800      	cmp	r0, #0
 8000a60:	d1e9      	bne.n	8000a36 <sendData+0x56>
 8000a62:	9a02      	ldr	r2, [sp, #8]
 8000a64:	682b      	ldr	r3, [r5, #0]
 8000a66:	3201      	adds	r2, #1
 8000a68:	429a      	cmp	r2, r3
 8000a6a:	d102      	bne.n	8000a72 <sendData+0x92>
 8000a6c:	f1b8 0f00 	cmp.w	r8, #0
 8000a70:	d1e1      	bne.n	8000a36 <sendData+0x56>
 8000a72:	3301      	adds	r3, #1
 8000a74:	602b      	str	r3, [r5, #0]
 8000a76:	2000      	movs	r0, #0
 8000a78:	b004      	add	sp, #16
 8000a7a:	e8bd 81f0 	ldmia.w	sp!, {r4, r5, r6, r7, r8, pc}
 8000a7e:	bf00      	nop
 8000a80:	20000110 	.word	0x20000110

08000a84 <sendAck>:
 8000a84:	b51f      	push	{r0, r1, r2, r3, r4, lr}
 8000a86:	2205      	movs	r2, #5
 8000a88:	2300      	movs	r3, #0
 8000a8a:	9002      	str	r0, [sp, #8]
 8000a8c:	4668      	mov	r0, sp
 8000a8e:	e9cd 2300 	strd	r2, r3, [sp]
 8000a92:	f7ff ff3c 	bl	800090e <sendDataHeader>
 8000a96:	b005      	add	sp, #20
 8000a98:	f85d fb04 	ldr.w	pc, [sp], #4

08000a9c <receiveData>:
 8000a9c:	e92d 43f0 	stmdb	sp!, {r4, r5, r6, r7, r8, r9, lr}
 8000aa0:	f8df 80b0 	ldr.w	r8, [pc, #176]	; 8000b54 <receiveData+0xb8>
 8000aa4:	b089      	sub	sp, #36	; 0x24
 8000aa6:	4607      	mov	r7, r0
 8000aa8:	460e      	mov	r6, r1
 8000aaa:	4615      	mov	r5, r2
 8000aac:	4644      	mov	r4, r8
 8000aae:	4629      	mov	r1, r5
 8000ab0:	4630      	mov	r0, r6
 8000ab2:	f7ff ff60 	bl	8000976 <receiveDataHeader>
 8000ab6:	4681      	mov	r9, r0
 8000ab8:	4630      	mov	r0, r6
 8000aba:	f7ff ff1f 	bl	80008fc <verifyDataHeader>
 8000abe:	2800      	cmp	r0, #0
 8000ac0:	d1f5      	bne.n	8000aae <receiveData+0x12>
 8000ac2:	68b0      	ldr	r0, [r6, #8]
 8000ac4:	f8d8 3000 	ldr.w	r3, [r8]
 8000ac8:	3001      	adds	r0, #1
 8000aca:	4298      	cmp	r0, r3
 8000acc:	4629      	mov	r1, r5
 8000ace:	d12e      	bne.n	8000b2e <receiveData+0x92>
 8000ad0:	f7ff ffd8 	bl	8000a84 <sendAck>
 8000ad4:	f1b9 0f00 	cmp.w	r9, #0
 8000ad8:	d1e9      	bne.n	8000aae <receiveData+0x12>
 8000ada:	6823      	ldr	r3, [r4, #0]
 8000adc:	3301      	adds	r3, #1
 8000ade:	6023      	str	r3, [r4, #0]
 8000ae0:	6873      	ldr	r3, [r6, #4]
 8000ae2:	b303      	cbz	r3, 8000b26 <receiveData+0x8a>
 8000ae4:	2210      	movs	r2, #16
 8000ae6:	2100      	movs	r1, #0
 8000ae8:	eb0d 0002 	add.w	r0, sp, r2
 8000aec:	f001 fdac 	bl	8002648 <memset>
 8000af0:	9500      	str	r5, [sp, #0]
 8000af2:	ab04      	add	r3, sp, #16
 8000af4:	aa03      	add	r2, sp, #12
 8000af6:	4631      	mov	r1, r6
 8000af8:	4638      	mov	r0, r7
 8000afa:	f7ff ff49 	bl	8000990 <receiveFullPacket>
 8000afe:	4680      	mov	r8, r0
 8000b00:	a804      	add	r0, sp, #16
 8000b02:	f7ff fefb 	bl	80008fc <verifyDataHeader>
 8000b06:	2800      	cmp	r0, #0
 8000b08:	d1ec      	bne.n	8000ae4 <receiveData+0x48>
 8000b0a:	9806      	ldr	r0, [sp, #24]
 8000b0c:	6823      	ldr	r3, [r4, #0]
 8000b0e:	3001      	adds	r0, #1
 8000b10:	4298      	cmp	r0, r3
 8000b12:	d110      	bne.n	8000b36 <receiveData+0x9a>
 8000b14:	4629      	mov	r1, r5
 8000b16:	f7ff ffb5 	bl	8000a84 <sendAck>
 8000b1a:	f1b8 0f00 	cmp.w	r8, #0
 8000b1e:	d1e1      	bne.n	8000ae4 <receiveData+0x48>
 8000b20:	6823      	ldr	r3, [r4, #0]
 8000b22:	3301      	adds	r3, #1
 8000b24:	6023      	str	r3, [r4, #0]
 8000b26:	2000      	movs	r0, #0
 8000b28:	b009      	add	sp, #36	; 0x24
 8000b2a:	e8bd 83f0 	ldmia.w	sp!, {r4, r5, r6, r7, r8, r9, pc}
 8000b2e:	1c58      	adds	r0, r3, #1
 8000b30:	f7ff ffa8 	bl	8000a84 <sendAck>
 8000b34:	e7d1      	b.n	8000ada <receiveData+0x3e>
 8000b36:	9905      	ldr	r1, [sp, #20]
 8000b38:	2900      	cmp	r1, #0
 8000b3a:	d0d3      	beq.n	8000ae4 <receiveData+0x48>
 8000b3c:	4638      	mov	r0, r7
 8000b3e:	f7ff fbaf 	bl	80002a0 <crc32>
 8000b42:	9b03      	ldr	r3, [sp, #12]
 8000b44:	4298      	cmp	r0, r3
 8000b46:	d1cd      	bne.n	8000ae4 <receiveData+0x48>
 8000b48:	6820      	ldr	r0, [r4, #0]
 8000b4a:	4629      	mov	r1, r5
 8000b4c:	3001      	adds	r0, #1
 8000b4e:	f7ff ff99 	bl	8000a84 <sendAck>
 8000b52:	e7e5      	b.n	8000b20 <receiveData+0x84>
 8000b54:	20000110 	.word	0x20000110

08000b58 <askForNextBlock>:
 8000b58:	b510      	push	{r4, lr}
 8000b5a:	b0a2      	sub	sp, #136	; 0x88
 8000b5c:	e9cd 0104 	strd	r0, r1, [sp, #16]
 8000b60:	4614      	mov	r4, r2
 8000b62:	4668      	mov	r0, sp
 8000b64:	2208      	movs	r2, #8
 8000b66:	2104      	movs	r1, #4
 8000b68:	f7ff feba 	bl	80008e0 <makeHeader>
 8000b6c:	4622      	mov	r2, r4
 8000b6e:	a904      	add	r1, sp, #16
 8000b70:	4668      	mov	r0, sp
 8000b72:	f7ff ff35 	bl	80009e0 <sendData>
 8000b76:	b022      	add	sp, #136	; 0x88
 8000b78:	bd10      	pop	{r4, pc}

08000b7a <sendReadyToNextCommand>:
 8000b7a:	b51f      	push	{r0, r1, r2, r3, r4, lr}
 8000b7c:	4604      	mov	r4, r0
 8000b7e:	2200      	movs	r2, #0
 8000b80:	4668      	mov	r0, sp
 8000b82:	2106      	movs	r1, #6
 8000b84:	f7ff feac 	bl	80008e0 <makeHeader>
 8000b88:	4622      	mov	r2, r4
 8000b8a:	2100      	movs	r1, #0
 8000b8c:	4668      	mov	r0, sp
 8000b8e:	f7ff ff27 	bl	80009e0 <sendData>
 8000b92:	b004      	add	sp, #16
 8000b94:	bd10      	pop	{r4, pc}

08000b96 <HAL_printf>:
 8000b96:	b40f      	push	{r0, r1, r2, r3}
 8000b98:	b530      	push	{r4, r5, lr}
 8000b9a:	b0c7      	sub	sp, #284	; 0x11c
 8000b9c:	ac4a      	add	r4, sp, #296	; 0x128
 8000b9e:	f44f 7280 	mov.w	r2, #256	; 0x100
 8000ba2:	f854 5b04 	ldr.w	r5, [r4], #4
 8000ba6:	2100      	movs	r1, #0
 8000ba8:	a806      	add	r0, sp, #24
 8000baa:	f001 fd4d 	bl	8002648 <memset>
 8000bae:	4622      	mov	r2, r4
 8000bb0:	4629      	mov	r1, r5
 8000bb2:	a806      	add	r0, sp, #24
 8000bb4:	9401      	str	r4, [sp, #4]
 8000bb6:	f001 fd65 	bl	8002684 <vsiprintf>
 8000bba:	a806      	add	r0, sp, #24
 8000bbc:	f7ff fb18 	bl	80001f0 <strlen>
 8000bc0:	2101      	movs	r1, #1
 8000bc2:	4602      	mov	r2, r0
 8000bc4:	a802      	add	r0, sp, #8
 8000bc6:	f7ff fe8b 	bl	80008e0 <makeHeader>
 8000bca:	f640 32b8 	movw	r2, #3000	; 0xbb8
 8000bce:	a906      	add	r1, sp, #24
 8000bd0:	a802      	add	r0, sp, #8
 8000bd2:	f7ff ff05 	bl	80009e0 <sendData>
 8000bd6:	b047      	add	sp, #284	; 0x11c
 8000bd8:	e8bd 4030 	ldmia.w	sp!, {r4, r5, lr}
 8000bdc:	b004      	add	sp, #16
 8000bde:	4770      	bx	lr

08000be0 <startSession>:
 8000be0:	b513      	push	{r0, r1, r4, lr}
 8000be2:	ac02      	add	r4, sp, #8
 8000be4:	23ae      	movs	r3, #174	; 0xae
 8000be6:	f804 3d01 	strb.w	r3, [r4, #-1]!
 8000bea:	f44f 72fa 	mov.w	r2, #500	; 0x1f4
 8000bee:	2101      	movs	r1, #1
 8000bf0:	4620      	mov	r0, r4
 8000bf2:	f7ff fdb3 	bl	800075c <transmit>
 8000bf6:	b928      	cbnz	r0, 8000c04 <startSession+0x24>
 8000bf8:	f44f 72fa 	mov.w	r2, #500	; 0x1f4
 8000bfc:	2101      	movs	r1, #1
 8000bfe:	4620      	mov	r0, r4
 8000c00:	f7ff fdba 	bl	8000778 <receive>
 8000c04:	b002      	add	sp, #8
 8000c06:	bd10      	pop	{r4, pc}

08000c08 <Reset_Handler>:
 8000c08:	f8df d034 	ldr.w	sp, [pc, #52]	; 8000c40 <LoopForever+0x2>
 8000c0c:	2100      	movs	r1, #0
 8000c0e:	e003      	b.n	8000c18 <LoopCopyDataInit>

08000c10 <CopyDataInit>:
 8000c10:	4b0c      	ldr	r3, [pc, #48]	; (8000c44 <LoopForever+0x6>)
 8000c12:	585b      	ldr	r3, [r3, r1]
 8000c14:	5043      	str	r3, [r0, r1]
 8000c16:	3104      	adds	r1, #4

08000c18 <LoopCopyDataInit>:
 8000c18:	480b      	ldr	r0, [pc, #44]	; (8000c48 <LoopForever+0xa>)
 8000c1a:	4b0c      	ldr	r3, [pc, #48]	; (8000c4c <LoopForever+0xe>)
 8000c1c:	1842      	adds	r2, r0, r1
 8000c1e:	429a      	cmp	r2, r3
 8000c20:	d3f6      	bcc.n	8000c10 <CopyDataInit>
 8000c22:	4a0b      	ldr	r2, [pc, #44]	; (8000c50 <LoopForever+0x12>)
 8000c24:	e002      	b.n	8000c2c <LoopFillZerobss>

08000c26 <FillZerobss>:
 8000c26:	2300      	movs	r3, #0
 8000c28:	f842 3b04 	str.w	r3, [r2], #4

08000c2c <LoopFillZerobss>:
 8000c2c:	4b09      	ldr	r3, [pc, #36]	; (8000c54 <LoopForever+0x16>)
 8000c2e:	429a      	cmp	r2, r3
 8000c30:	d3f9      	bcc.n	8000c26 <FillZerobss>
 8000c32:	f7ff fe43 	bl	80008bc <SystemInit>
 8000c36:	f001 fcbf 	bl	80025b8 <__libc_init_array>
 8000c3a:	f7ff fb87 	bl	800034c <main>

08000c3e <LoopForever>:
 8000c3e:	e7fe      	b.n	8000c3e <LoopForever>
 8000c40:	2000a000 	.word	0x2000a000
 8000c44:	080032cc 	.word	0x080032cc
 8000c48:	20000000 	.word	0x20000000
 8000c4c:	20000070 	.word	0x20000070
 8000c50:	20000070 	.word	0x20000070
 8000c54:	200002c4 	.word	0x200002c4

08000c58 <ADC1_2_IRQHandler>:
 8000c58:	e7fe      	b.n	8000c58 <ADC1_2_IRQHandler>
	...

08000c5c <HAL_InitTick>:
 8000c5c:	b538      	push	{r3, r4, r5, lr}
 8000c5e:	4a0e      	ldr	r2, [pc, #56]	; (8000c98 <HAL_InitTick+0x3c>)
 8000c60:	4b0e      	ldr	r3, [pc, #56]	; (8000c9c <HAL_InitTick+0x40>)
 8000c62:	4605      	mov	r5, r0
 8000c64:	7818      	ldrb	r0, [r3, #0]
 8000c66:	f44f 737a 	mov.w	r3, #1000	; 0x3e8
 8000c6a:	fbb3 f3f0 	udiv	r3, r3, r0
 8000c6e:	6810      	ldr	r0, [r2, #0]
 8000c70:	fbb0 f0f3 	udiv	r0, r0, r3
 8000c74:	f000 f880 	bl	8000d78 <HAL_SYSTICK_Config>
 8000c78:	4604      	mov	r4, r0
 8000c7a:	b958      	cbnz	r0, 8000c94 <HAL_InitTick+0x38>
 8000c7c:	2d0f      	cmp	r5, #15
 8000c7e:	d809      	bhi.n	8000c94 <HAL_InitTick+0x38>
 8000c80:	4602      	mov	r2, r0
 8000c82:	4629      	mov	r1, r5
 8000c84:	f04f 30ff 	mov.w	r0, #4294967295
 8000c88:	f000 f842 	bl	8000d10 <HAL_NVIC_SetPriority>
 8000c8c:	4b04      	ldr	r3, [pc, #16]	; (8000ca0 <HAL_InitTick+0x44>)
 8000c8e:	4620      	mov	r0, r4
 8000c90:	601d      	str	r5, [r3, #0]
 8000c92:	bd38      	pop	{r3, r4, r5, pc}
 8000c94:	2001      	movs	r0, #1
 8000c96:	e7fc      	b.n	8000c92 <HAL_InitTick+0x36>
 8000c98:	20000000 	.word	0x20000000
 8000c9c:	20000004 	.word	0x20000004
 8000ca0:	20000008 	.word	0x20000008

08000ca4 <HAL_Init>:
 8000ca4:	4a07      	ldr	r2, [pc, #28]	; (8000cc4 <HAL_Init+0x20>)
 8000ca6:	b508      	push	{r3, lr}
 8000ca8:	6813      	ldr	r3, [r2, #0]
 8000caa:	f043 0310 	orr.w	r3, r3, #16
 8000cae:	6013      	str	r3, [r2, #0]
 8000cb0:	2003      	movs	r0, #3
 8000cb2:	f000 f81b 	bl	8000cec <HAL_NVIC_SetPriorityGrouping>
 8000cb6:	2000      	movs	r0, #0
 8000cb8:	f7ff ffd0 	bl	8000c5c <HAL_InitTick>
 8000cbc:	f7ff fd76 	bl	80007ac <HAL_MspInit>
 8000cc0:	2000      	movs	r0, #0
 8000cc2:	bd08      	pop	{r3, pc}
 8000cc4:	40022000 	.word	0x40022000

08000cc8 <HAL_IncTick>:
 8000cc8:	4a03      	ldr	r2, [pc, #12]	; (8000cd8 <HAL_IncTick+0x10>)
 8000cca:	4b04      	ldr	r3, [pc, #16]	; (8000cdc <HAL_IncTick+0x14>)
 8000ccc:	6811      	ldr	r1, [r2, #0]
 8000cce:	781b      	ldrb	r3, [r3, #0]
 8000cd0:	440b      	add	r3, r1
 8000cd2:	6013      	str	r3, [r2, #0]
 8000cd4:	4770      	bx	lr
 8000cd6:	bf00      	nop
 8000cd8:	2000029c 	.word	0x2000029c
 8000cdc:	20000004 	.word	0x20000004

08000ce0 <HAL_GetTick>:
 8000ce0:	4b01      	ldr	r3, [pc, #4]	; (8000ce8 <HAL_GetTick+0x8>)
 8000ce2:	6818      	ldr	r0, [r3, #0]
 8000ce4:	4770      	bx	lr
 8000ce6:	bf00      	nop
 8000ce8:	2000029c 	.word	0x2000029c

08000cec <HAL_NVIC_SetPriorityGrouping>:
 8000cec:	4a07      	ldr	r2, [pc, #28]	; (8000d0c <HAL_NVIC_SetPriorityGrouping+0x20>)
 8000cee:	68d3      	ldr	r3, [r2, #12]
 8000cf0:	f423 63e0 	bic.w	r3, r3, #1792	; 0x700
 8000cf4:	041b      	lsls	r3, r3, #16
 8000cf6:	0c1b      	lsrs	r3, r3, #16
 8000cf8:	f043 63bf 	orr.w	r3, r3, #100139008	; 0x5f80000
 8000cfc:	0200      	lsls	r0, r0, #8
 8000cfe:	f443 3300 	orr.w	r3, r3, #131072	; 0x20000
 8000d02:	f400 60e0 	and.w	r0, r0, #1792	; 0x700
 8000d06:	4303      	orrs	r3, r0
 8000d08:	60d3      	str	r3, [r2, #12]
 8000d0a:	4770      	bx	lr
 8000d0c:	e000ed00 	.word	0xe000ed00

08000d10 <HAL_NVIC_SetPriority>:
 8000d10:	4b17      	ldr	r3, [pc, #92]	; (8000d70 <HAL_NVIC_SetPriority+0x60>)
 8000d12:	b570      	push	{r4, r5, r6, lr}
 8000d14:	68dc      	ldr	r4, [r3, #12]
 8000d16:	f3c4 2402 	ubfx	r4, r4, #8, #3
 8000d1a:	f1c4 0507 	rsb	r5, r4, #7
 8000d1e:	2d04      	cmp	r5, #4
 8000d20:	f104 0304 	add.w	r3, r4, #4
 8000d24:	bf28      	it	cs
 8000d26:	2504      	movcs	r5, #4
 8000d28:	f04f 36ff 	mov.w	r6, #4294967295
 8000d2c:	2b06      	cmp	r3, #6
 8000d2e:	fa06 f305 	lsl.w	r3, r6, r5
 8000d32:	bf8c      	ite	hi
 8000d34:	3c03      	subhi	r4, #3
 8000d36:	2400      	movls	r4, #0
 8000d38:	ea21 0303 	bic.w	r3, r1, r3
 8000d3c:	40a3      	lsls	r3, r4
 8000d3e:	fa06 f404 	lsl.w	r4, r6, r4
 8000d42:	ea22 0404 	bic.w	r4, r2, r4
 8000d46:	2800      	cmp	r0, #0
 8000d48:	ea43 0304 	orr.w	r3, r3, r4
 8000d4c:	bfa8      	it	ge
 8000d4e:	f100 4060 	addge.w	r0, r0, #3758096384	; 0xe0000000
 8000d52:	ea4f 1303 	mov.w	r3, r3, lsl #4
 8000d56:	bfbc      	itt	lt
 8000d58:	f000 000f 	andlt.w	r0, r0, #15
 8000d5c:	4a05      	ldrlt	r2, [pc, #20]	; (8000d74 <HAL_NVIC_SetPriority+0x64>)
 8000d5e:	b2db      	uxtb	r3, r3
 8000d60:	bfaa      	itet	ge
 8000d62:	f500 4061 	addge.w	r0, r0, #57600	; 0xe100
 8000d66:	5413      	strblt	r3, [r2, r0]
 8000d68:	f880 3300 	strbge.w	r3, [r0, #768]	; 0x300
 8000d6c:	bd70      	pop	{r4, r5, r6, pc}
 8000d6e:	bf00      	nop
 8000d70:	e000ed00 	.word	0xe000ed00
 8000d74:	e000ed14 	.word	0xe000ed14

08000d78 <HAL_SYSTICK_Config>:
 8000d78:	3801      	subs	r0, #1
 8000d7a:	f1b0 7f80 	cmp.w	r0, #16777216	; 0x1000000
 8000d7e:	d20a      	bcs.n	8000d96 <HAL_SYSTICK_Config+0x1e>
 8000d80:	4b06      	ldr	r3, [pc, #24]	; (8000d9c <HAL_SYSTICK_Config+0x24>)
 8000d82:	4a07      	ldr	r2, [pc, #28]	; (8000da0 <HAL_SYSTICK_Config+0x28>)
 8000d84:	6058      	str	r0, [r3, #4]
 8000d86:	21f0      	movs	r1, #240	; 0xf0
 8000d88:	f882 1023 	strb.w	r1, [r2, #35]	; 0x23
 8000d8c:	2000      	movs	r0, #0
 8000d8e:	2207      	movs	r2, #7
 8000d90:	6098      	str	r0, [r3, #8]
 8000d92:	601a      	str	r2, [r3, #0]
 8000d94:	4770      	bx	lr
 8000d96:	2001      	movs	r0, #1
 8000d98:	4770      	bx	lr
 8000d9a:	bf00      	nop
 8000d9c:	e000e010 	.word	0xe000e010
 8000da0:	e000ed00 	.word	0xe000ed00

08000da4 <FLASH_SetErrorCode>:
 8000da4:	4a0b      	ldr	r2, [pc, #44]	; (8000dd4 <FLASH_SetErrorCode+0x30>)
 8000da6:	68d3      	ldr	r3, [r2, #12]
 8000da8:	f013 0310 	ands.w	r3, r3, #16
 8000dac:	d005      	beq.n	8000dba <FLASH_SetErrorCode+0x16>
 8000dae:	490a      	ldr	r1, [pc, #40]	; (8000dd8 <FLASH_SetErrorCode+0x34>)
 8000db0:	69cb      	ldr	r3, [r1, #28]
 8000db2:	f043 0302 	orr.w	r3, r3, #2
 8000db6:	61cb      	str	r3, [r1, #28]
 8000db8:	2310      	movs	r3, #16
 8000dba:	68d2      	ldr	r2, [r2, #12]
 8000dbc:	0752      	lsls	r2, r2, #29
 8000dbe:	d506      	bpl.n	8000dce <FLASH_SetErrorCode+0x2a>
 8000dc0:	4905      	ldr	r1, [pc, #20]	; (8000dd8 <FLASH_SetErrorCode+0x34>)
 8000dc2:	69ca      	ldr	r2, [r1, #28]
 8000dc4:	f042 0201 	orr.w	r2, r2, #1
 8000dc8:	61ca      	str	r2, [r1, #28]
 8000dca:	f043 0304 	orr.w	r3, r3, #4
 8000dce:	4a01      	ldr	r2, [pc, #4]	; (8000dd4 <FLASH_SetErrorCode+0x30>)
 8000dd0:	60d3      	str	r3, [r2, #12]
 8000dd2:	4770      	bx	lr
 8000dd4:	40022000 	.word	0x40022000
 8000dd8:	200002a0 	.word	0x200002a0

08000ddc <HAL_FLASH_Unlock>:
 8000ddc:	4b06      	ldr	r3, [pc, #24]	; (8000df8 <HAL_FLASH_Unlock+0x1c>)
 8000dde:	6918      	ldr	r0, [r3, #16]
 8000de0:	f010 0080 	ands.w	r0, r0, #128	; 0x80
 8000de4:	d007      	beq.n	8000df6 <HAL_FLASH_Unlock+0x1a>
 8000de6:	4a05      	ldr	r2, [pc, #20]	; (8000dfc <HAL_FLASH_Unlock+0x20>)
 8000de8:	605a      	str	r2, [r3, #4]
 8000dea:	f102 3288 	add.w	r2, r2, #2290649224	; 0x88888888
 8000dee:	605a      	str	r2, [r3, #4]
 8000df0:	6918      	ldr	r0, [r3, #16]
 8000df2:	f3c0 10c0 	ubfx	r0, r0, #7, #1
 8000df6:	4770      	bx	lr
 8000df8:	40022000 	.word	0x40022000
 8000dfc:	45670123 	.word	0x45670123

08000e00 <HAL_FLASH_Lock>:
 8000e00:	4a03      	ldr	r2, [pc, #12]	; (8000e10 <HAL_FLASH_Lock+0x10>)
 8000e02:	6913      	ldr	r3, [r2, #16]
 8000e04:	f043 0380 	orr.w	r3, r3, #128	; 0x80
 8000e08:	6113      	str	r3, [r2, #16]
 8000e0a:	2000      	movs	r0, #0
 8000e0c:	4770      	bx	lr
 8000e0e:	bf00      	nop
 8000e10:	40022000 	.word	0x40022000

08000e14 <FLASH_WaitForLastOperation>:
 8000e14:	b5f8      	push	{r3, r4, r5, r6, r7, lr}
 8000e16:	4605      	mov	r5, r0
 8000e18:	f7ff ff62 	bl	8000ce0 <HAL_GetTick>
 8000e1c:	4c10      	ldr	r4, [pc, #64]	; (8000e60 <FLASH_WaitForLastOperation+0x4c>)
 8000e1e:	4607      	mov	r7, r0
 8000e20:	4626      	mov	r6, r4
 8000e22:	68e3      	ldr	r3, [r4, #12]
 8000e24:	07d9      	lsls	r1, r3, #31
 8000e26:	d40f      	bmi.n	8000e48 <FLASH_WaitForLastOperation+0x34>
 8000e28:	68e3      	ldr	r3, [r4, #12]
 8000e2a:	069a      	lsls	r2, r3, #26
 8000e2c:	bf44      	itt	mi
 8000e2e:	2320      	movmi	r3, #32
 8000e30:	60e3      	strmi	r3, [r4, #12]
 8000e32:	68f3      	ldr	r3, [r6, #12]
 8000e34:	06db      	lsls	r3, r3, #27
 8000e36:	d403      	bmi.n	8000e40 <FLASH_WaitForLastOperation+0x2c>
 8000e38:	68f0      	ldr	r0, [r6, #12]
 8000e3a:	f010 0004 	ands.w	r0, r0, #4
 8000e3e:	d007      	beq.n	8000e50 <FLASH_WaitForLastOperation+0x3c>
 8000e40:	f7ff ffb0 	bl	8000da4 <FLASH_SetErrorCode>
 8000e44:	2001      	movs	r0, #1
 8000e46:	e003      	b.n	8000e50 <FLASH_WaitForLastOperation+0x3c>
 8000e48:	1c68      	adds	r0, r5, #1
 8000e4a:	d0ea      	beq.n	8000e22 <FLASH_WaitForLastOperation+0xe>
 8000e4c:	b90d      	cbnz	r5, 8000e52 <FLASH_WaitForLastOperation+0x3e>
 8000e4e:	2003      	movs	r0, #3
 8000e50:	bdf8      	pop	{r3, r4, r5, r6, r7, pc}
 8000e52:	f7ff ff45 	bl	8000ce0 <HAL_GetTick>
 8000e56:	1bc0      	subs	r0, r0, r7
 8000e58:	42a8      	cmp	r0, r5
 8000e5a:	d9e2      	bls.n	8000e22 <FLASH_WaitForLastOperation+0xe>
 8000e5c:	e7f7      	b.n	8000e4e <FLASH_WaitForLastOperation+0x3a>
 8000e5e:	bf00      	nop
 8000e60:	40022000 	.word	0x40022000

08000e64 <HAL_FLASH_Program>:
 8000e64:	e92d 4ff8 	stmdb	sp!, {r3, r4, r5, r6, r7, r8, r9, sl, fp, lr}
 8000e68:	4c24      	ldr	r4, [pc, #144]	; (8000efc <HAL_FLASH_Program+0x98>)
 8000e6a:	461e      	mov	r6, r3
 8000e6c:	7e23      	ldrb	r3, [r4, #24]
 8000e6e:	2b01      	cmp	r3, #1
 8000e70:	4605      	mov	r5, r0
 8000e72:	460f      	mov	r7, r1
 8000e74:	4690      	mov	r8, r2
 8000e76:	d03f      	beq.n	8000ef8 <HAL_FLASH_Program+0x94>
 8000e78:	2301      	movs	r3, #1
 8000e7a:	f24c 3050 	movw	r0, #50000	; 0xc350
 8000e7e:	7623      	strb	r3, [r4, #24]
 8000e80:	f7ff ffc8 	bl	8000e14 <FLASH_WaitForLastOperation>
 8000e84:	bba0      	cbnz	r0, 8000ef0 <HAL_FLASH_Program+0x8c>
 8000e86:	2d01      	cmp	r5, #1
 8000e88:	d003      	beq.n	8000e92 <HAL_FLASH_Program+0x2e>
 8000e8a:	2d02      	cmp	r5, #2
 8000e8c:	bf0c      	ite	eq
 8000e8e:	2502      	moveq	r5, #2
 8000e90:	2504      	movne	r5, #4
 8000e92:	f04f 0900 	mov.w	r9, #0
 8000e96:	f8df a068 	ldr.w	sl, [pc, #104]	; 8000f00 <HAL_FLASH_Program+0x9c>
 8000e9a:	46cb      	mov	fp, r9
 8000e9c:	ea4f 1309 	mov.w	r3, r9, lsl #4
 8000ea0:	f1c3 0120 	rsb	r1, r3, #32
 8000ea4:	f1a3 0220 	sub.w	r2, r3, #32
 8000ea8:	fa06 f101 	lsl.w	r1, r6, r1
 8000eac:	fa28 f303 	lsr.w	r3, r8, r3
 8000eb0:	f8c4 b01c 	str.w	fp, [r4, #28]
 8000eb4:	430b      	orrs	r3, r1
 8000eb6:	fa26 f202 	lsr.w	r2, r6, r2
 8000eba:	4313      	orrs	r3, r2
 8000ebc:	f8da 2010 	ldr.w	r2, [sl, #16]
 8000ec0:	b29b      	uxth	r3, r3
 8000ec2:	f042 0201 	orr.w	r2, r2, #1
 8000ec6:	f8ca 2010 	str.w	r2, [sl, #16]
 8000eca:	f24c 3050 	movw	r0, #50000	; 0xc350
 8000ece:	f827 3019 	strh.w	r3, [r7, r9, lsl #1]
 8000ed2:	f7ff ff9f 	bl	8000e14 <FLASH_WaitForLastOperation>
 8000ed6:	f8da 3010 	ldr.w	r3, [sl, #16]
 8000eda:	f023 0301 	bic.w	r3, r3, #1
 8000ede:	f8ca 3010 	str.w	r3, [sl, #16]
 8000ee2:	b928      	cbnz	r0, 8000ef0 <HAL_FLASH_Program+0x8c>
 8000ee4:	f109 0901 	add.w	r9, r9, #1
 8000ee8:	fa5f f389 	uxtb.w	r3, r9
 8000eec:	429d      	cmp	r5, r3
 8000eee:	d8d5      	bhi.n	8000e9c <HAL_FLASH_Program+0x38>
 8000ef0:	2300      	movs	r3, #0
 8000ef2:	7623      	strb	r3, [r4, #24]
 8000ef4:	e8bd 8ff8 	ldmia.w	sp!, {r3, r4, r5, r6, r7, r8, r9, sl, fp, pc}
 8000ef8:	2002      	movs	r0, #2
 8000efa:	e7fb      	b.n	8000ef4 <HAL_FLASH_Program+0x90>
 8000efc:	200002a0 	.word	0x200002a0
 8000f00:	40022000 	.word	0x40022000

08000f04 <FLASH_MassErase>:
 8000f04:	4b06      	ldr	r3, [pc, #24]	; (8000f20 <FLASH_MassErase+0x1c>)
 8000f06:	2200      	movs	r2, #0
 8000f08:	61da      	str	r2, [r3, #28]
 8000f0a:	4b06      	ldr	r3, [pc, #24]	; (8000f24 <FLASH_MassErase+0x20>)
 8000f0c:	691a      	ldr	r2, [r3, #16]
 8000f0e:	f042 0204 	orr.w	r2, r2, #4
 8000f12:	611a      	str	r2, [r3, #16]
 8000f14:	691a      	ldr	r2, [r3, #16]
 8000f16:	f042 0240 	orr.w	r2, r2, #64	; 0x40
 8000f1a:	611a      	str	r2, [r3, #16]
 8000f1c:	4770      	bx	lr
 8000f1e:	bf00      	nop
 8000f20:	200002a0 	.word	0x200002a0
 8000f24:	40022000 	.word	0x40022000

08000f28 <FLASH_PageErase>:
 8000f28:	4b06      	ldr	r3, [pc, #24]	; (8000f44 <FLASH_PageErase+0x1c>)
 8000f2a:	2200      	movs	r2, #0
 8000f2c:	61da      	str	r2, [r3, #28]
 8000f2e:	4b06      	ldr	r3, [pc, #24]	; (8000f48 <FLASH_PageErase+0x20>)
 8000f30:	691a      	ldr	r2, [r3, #16]
 8000f32:	f042 0202 	orr.w	r2, r2, #2
 8000f36:	611a      	str	r2, [r3, #16]
 8000f38:	6158      	str	r0, [r3, #20]
 8000f3a:	691a      	ldr	r2, [r3, #16]
 8000f3c:	f042 0240 	orr.w	r2, r2, #64	; 0x40
 8000f40:	611a      	str	r2, [r3, #16]
 8000f42:	4770      	bx	lr
 8000f44:	200002a0 	.word	0x200002a0
 8000f48:	40022000 	.word	0x40022000

08000f4c <HAL_FLASHEx_Erase>:
 8000f4c:	e92d 41f0 	stmdb	sp!, {r4, r5, r6, r7, r8, lr}
 8000f50:	4d22      	ldr	r5, [pc, #136]	; (8000fdc <HAL_FLASHEx_Erase+0x90>)
 8000f52:	7e2b      	ldrb	r3, [r5, #24]
 8000f54:	2b01      	cmp	r3, #1
 8000f56:	4607      	mov	r7, r0
 8000f58:	4688      	mov	r8, r1
 8000f5a:	d03d      	beq.n	8000fd8 <HAL_FLASHEx_Erase+0x8c>
 8000f5c:	6803      	ldr	r3, [r0, #0]
 8000f5e:	2401      	movs	r4, #1
 8000f60:	42a3      	cmp	r3, r4
 8000f62:	762c      	strb	r4, [r5, #24]
 8000f64:	f24c 3050 	movw	r0, #50000	; 0xc350
 8000f68:	d113      	bne.n	8000f92 <HAL_FLASHEx_Erase+0x46>
 8000f6a:	f7ff ff53 	bl	8000e14 <FLASH_WaitForLastOperation>
 8000f6e:	b120      	cbz	r0, 8000f7a <HAL_FLASHEx_Erase+0x2e>
 8000f70:	2001      	movs	r0, #1
 8000f72:	2300      	movs	r3, #0
 8000f74:	762b      	strb	r3, [r5, #24]
 8000f76:	e8bd 81f0 	ldmia.w	sp!, {r4, r5, r6, r7, r8, pc}
 8000f7a:	f7ff ffc3 	bl	8000f04 <FLASH_MassErase>
 8000f7e:	f24c 3050 	movw	r0, #50000	; 0xc350
 8000f82:	f7ff ff47 	bl	8000e14 <FLASH_WaitForLastOperation>
 8000f86:	4a16      	ldr	r2, [pc, #88]	; (8000fe0 <HAL_FLASHEx_Erase+0x94>)
 8000f88:	6913      	ldr	r3, [r2, #16]
 8000f8a:	f023 0304 	bic.w	r3, r3, #4
 8000f8e:	6113      	str	r3, [r2, #16]
 8000f90:	e7ef      	b.n	8000f72 <HAL_FLASHEx_Erase+0x26>
 8000f92:	f7ff ff3f 	bl	8000e14 <FLASH_WaitForLastOperation>
 8000f96:	2800      	cmp	r0, #0
 8000f98:	d1ea      	bne.n	8000f70 <HAL_FLASHEx_Erase+0x24>
 8000f9a:	f04f 33ff 	mov.w	r3, #4294967295
 8000f9e:	f8c8 3000 	str.w	r3, [r8]
 8000fa2:	4620      	mov	r0, r4
 8000fa4:	687e      	ldr	r6, [r7, #4]
 8000fa6:	4c0e      	ldr	r4, [pc, #56]	; (8000fe0 <HAL_FLASHEx_Erase+0x94>)
 8000fa8:	e9d7 3201 	ldrd	r3, r2, [r7, #4]
 8000fac:	eb03 23c2 	add.w	r3, r3, r2, lsl #11
 8000fb0:	42b3      	cmp	r3, r6
 8000fb2:	d9de      	bls.n	8000f72 <HAL_FLASHEx_Erase+0x26>
 8000fb4:	4630      	mov	r0, r6
 8000fb6:	f7ff ffb7 	bl	8000f28 <FLASH_PageErase>
 8000fba:	f24c 3050 	movw	r0, #50000	; 0xc350
 8000fbe:	f7ff ff29 	bl	8000e14 <FLASH_WaitForLastOperation>
 8000fc2:	6923      	ldr	r3, [r4, #16]
 8000fc4:	f023 0302 	bic.w	r3, r3, #2
 8000fc8:	6123      	str	r3, [r4, #16]
 8000fca:	b110      	cbz	r0, 8000fd2 <HAL_FLASHEx_Erase+0x86>
 8000fcc:	f8c8 6000 	str.w	r6, [r8]
 8000fd0:	e7cf      	b.n	8000f72 <HAL_FLASHEx_Erase+0x26>
 8000fd2:	f506 6600 	add.w	r6, r6, #2048	; 0x800
 8000fd6:	e7e7      	b.n	8000fa8 <HAL_FLASHEx_Erase+0x5c>
 8000fd8:	2002      	movs	r0, #2
 8000fda:	e7cc      	b.n	8000f76 <HAL_FLASHEx_Erase+0x2a>
 8000fdc:	200002a0 	.word	0x200002a0
 8000fe0:	40022000 	.word	0x40022000

08000fe4 <HAL_GPIO_Init>:
 8000fe4:	e92d 4ff7 	stmdb	sp!, {r0, r1, r2, r4, r5, r6, r7, r8, r9, sl, fp, lr}
 8000fe8:	f8d1 8000 	ldr.w	r8, [r1]
 8000fec:	f8df 917c 	ldr.w	r9, [pc, #380]	; 800116c <HAL_GPIO_Init+0x188>
 8000ff0:	4a5c      	ldr	r2, [pc, #368]	; (8001164 <HAL_GPIO_Init+0x180>)
 8000ff2:	2300      	movs	r3, #0
 8000ff4:	fa38 f403 	lsrs.w	r4, r8, r3
 8000ff8:	d102      	bne.n	8001000 <HAL_GPIO_Init+0x1c>
 8000ffa:	b003      	add	sp, #12
 8000ffc:	e8bd 8ff0 	ldmia.w	sp!, {r4, r5, r6, r7, r8, r9, sl, fp, pc}
 8001000:	2401      	movs	r4, #1
 8001002:	fa04 fc03 	lsl.w	ip, r4, r3
 8001006:	ea1c 0508 	ands.w	r5, ip, r8
 800100a:	f000 80a0 	beq.w	800114e <HAL_GPIO_Init+0x16a>
 800100e:	684c      	ldr	r4, [r1, #4]
 8001010:	f024 0a10 	bic.w	sl, r4, #16
 8001014:	ea4f 0e43 	mov.w	lr, r3, lsl #1
 8001018:	2603      	movs	r6, #3
 800101a:	f10a 37ff 	add.w	r7, sl, #4294967295
 800101e:	fa06 f60e 	lsl.w	r6, r6, lr
 8001022:	2f01      	cmp	r7, #1
 8001024:	ea6f 0606 	mvn.w	r6, r6
 8001028:	d811      	bhi.n	800104e <HAL_GPIO_Init+0x6a>
 800102a:	6887      	ldr	r7, [r0, #8]
 800102c:	ea07 0b06 	and.w	fp, r7, r6
 8001030:	68cf      	ldr	r7, [r1, #12]
 8001032:	fa07 f70e 	lsl.w	r7, r7, lr
 8001036:	ea47 070b 	orr.w	r7, r7, fp
 800103a:	6087      	str	r7, [r0, #8]
 800103c:	6847      	ldr	r7, [r0, #4]
 800103e:	ea27 0c0c 	bic.w	ip, r7, ip
 8001042:	f3c4 1700 	ubfx	r7, r4, #4, #1
 8001046:	409f      	lsls	r7, r3
 8001048:	ea47 070c 	orr.w	r7, r7, ip
 800104c:	6047      	str	r7, [r0, #4]
 800104e:	68c7      	ldr	r7, [r0, #12]
 8001050:	ea07 0c06 	and.w	ip, r7, r6
 8001054:	688f      	ldr	r7, [r1, #8]
 8001056:	fa07 f70e 	lsl.w	r7, r7, lr
 800105a:	ea47 070c 	orr.w	r7, r7, ip
 800105e:	f1ba 0f02 	cmp.w	sl, #2
 8001062:	60c7      	str	r7, [r0, #12]
 8001064:	d116      	bne.n	8001094 <HAL_GPIO_Init+0xb0>
 8001066:	ea4f 0ad3 	mov.w	sl, r3, lsr #3
 800106a:	eb00 0a8a 	add.w	sl, r0, sl, lsl #2
 800106e:	f003 0b07 	and.w	fp, r3, #7
 8001072:	f8da 7020 	ldr.w	r7, [sl, #32]
 8001076:	ea4f 0b8b 	mov.w	fp, fp, lsl #2
 800107a:	f04f 0c0f 	mov.w	ip, #15
 800107e:	fa0c fc0b 	lsl.w	ip, ip, fp
 8001082:	ea27 0c0c 	bic.w	ip, r7, ip
 8001086:	690f      	ldr	r7, [r1, #16]
 8001088:	fa07 f70b 	lsl.w	r7, r7, fp
 800108c:	ea47 070c 	orr.w	r7, r7, ip
 8001090:	f8ca 7020 	str.w	r7, [sl, #32]
 8001094:	6807      	ldr	r7, [r0, #0]
 8001096:	403e      	ands	r6, r7
 8001098:	f004 0703 	and.w	r7, r4, #3
 800109c:	fa07 fe0e 	lsl.w	lr, r7, lr
 80010a0:	ea4e 0606 	orr.w	r6, lr, r6
 80010a4:	6006      	str	r6, [r0, #0]
 80010a6:	00e6      	lsls	r6, r4, #3
 80010a8:	d551      	bpl.n	800114e <HAL_GPIO_Init+0x16a>
 80010aa:	f8d9 6018 	ldr.w	r6, [r9, #24]
 80010ae:	f046 0601 	orr.w	r6, r6, #1
 80010b2:	f8c9 6018 	str.w	r6, [r9, #24]
 80010b6:	f8d9 6018 	ldr.w	r6, [r9, #24]
 80010ba:	f023 0703 	bic.w	r7, r3, #3
 80010be:	f107 4780 	add.w	r7, r7, #1073741824	; 0x40000000
 80010c2:	f006 0601 	and.w	r6, r6, #1
 80010c6:	f507 3780 	add.w	r7, r7, #65536	; 0x10000
 80010ca:	9601      	str	r6, [sp, #4]
 80010cc:	f003 0e03 	and.w	lr, r3, #3
 80010d0:	9e01      	ldr	r6, [sp, #4]
 80010d2:	68be      	ldr	r6, [r7, #8]
 80010d4:	ea4f 0e8e 	mov.w	lr, lr, lsl #2
 80010d8:	f04f 0c0f 	mov.w	ip, #15
 80010dc:	fa0c fc0e 	lsl.w	ip, ip, lr
 80010e0:	f1b0 4f90 	cmp.w	r0, #1207959552	; 0x48000000
 80010e4:	ea26 0c0c 	bic.w	ip, r6, ip
 80010e8:	d033      	beq.n	8001152 <HAL_GPIO_Init+0x16e>
 80010ea:	4e1f      	ldr	r6, [pc, #124]	; (8001168 <HAL_GPIO_Init+0x184>)
 80010ec:	42b0      	cmp	r0, r6
 80010ee:	d032      	beq.n	8001156 <HAL_GPIO_Init+0x172>
 80010f0:	f506 6680 	add.w	r6, r6, #1024	; 0x400
 80010f4:	42b0      	cmp	r0, r6
 80010f6:	d030      	beq.n	800115a <HAL_GPIO_Init+0x176>
 80010f8:	f506 6680 	add.w	r6, r6, #1024	; 0x400
 80010fc:	42b0      	cmp	r0, r6
 80010fe:	d02e      	beq.n	800115e <HAL_GPIO_Init+0x17a>
 8001100:	f506 6680 	add.w	r6, r6, #1024	; 0x400
 8001104:	42b0      	cmp	r0, r6
 8001106:	bf14      	ite	ne
 8001108:	2605      	movne	r6, #5
 800110a:	2604      	moveq	r6, #4
 800110c:	fa06 f60e 	lsl.w	r6, r6, lr
 8001110:	ea46 060c 	orr.w	r6, r6, ip
 8001114:	60be      	str	r6, [r7, #8]
 8001116:	6816      	ldr	r6, [r2, #0]
 8001118:	43ef      	mvns	r7, r5
 800111a:	f414 3f80 	tst.w	r4, #65536	; 0x10000
 800111e:	bf0c      	ite	eq
 8001120:	403e      	andeq	r6, r7
 8001122:	432e      	orrne	r6, r5
 8001124:	6016      	str	r6, [r2, #0]
 8001126:	6856      	ldr	r6, [r2, #4]
 8001128:	f414 3f00 	tst.w	r4, #131072	; 0x20000
 800112c:	bf0c      	ite	eq
 800112e:	403e      	andeq	r6, r7
 8001130:	432e      	orrne	r6, r5
 8001132:	6056      	str	r6, [r2, #4]
 8001134:	6896      	ldr	r6, [r2, #8]
 8001136:	f414 1f80 	tst.w	r4, #1048576	; 0x100000
 800113a:	bf0c      	ite	eq
 800113c:	403e      	andeq	r6, r7
 800113e:	432e      	orrne	r6, r5
 8001140:	6096      	str	r6, [r2, #8]
 8001142:	68d6      	ldr	r6, [r2, #12]
 8001144:	02a4      	lsls	r4, r4, #10
 8001146:	bf54      	ite	pl
 8001148:	403e      	andpl	r6, r7
 800114a:	432e      	orrmi	r6, r5
 800114c:	60d6      	str	r6, [r2, #12]
 800114e:	3301      	adds	r3, #1
 8001150:	e750      	b.n	8000ff4 <HAL_GPIO_Init+0x10>
 8001152:	2600      	movs	r6, #0
 8001154:	e7da      	b.n	800110c <HAL_GPIO_Init+0x128>
 8001156:	2601      	movs	r6, #1
 8001158:	e7d8      	b.n	800110c <HAL_GPIO_Init+0x128>
 800115a:	2602      	movs	r6, #2
 800115c:	e7d6      	b.n	800110c <HAL_GPIO_Init+0x128>
 800115e:	2603      	movs	r6, #3
 8001160:	e7d4      	b.n	800110c <HAL_GPIO_Init+0x128>
 8001162:	bf00      	nop
 8001164:	40010400 	.word	0x40010400
 8001168:	48000400 	.word	0x48000400
 800116c:	40021000 	.word	0x40021000

08001170 <HAL_GPIO_DeInit>:
 8001170:	4a38      	ldr	r2, [pc, #224]	; (8001254 <HAL_GPIO_DeInit+0xe4>)
 8001172:	e92d 4ff0 	stmdb	sp!, {r4, r5, r6, r7, r8, r9, sl, fp, lr}
 8001176:	2300      	movs	r3, #0
 8001178:	f04f 0a01 	mov.w	sl, #1
 800117c:	f04f 080f 	mov.w	r8, #15
 8001180:	f04f 0b03 	mov.w	fp, #3
 8001184:	fa31 f403 	lsrs.w	r4, r1, r3
 8001188:	d101      	bne.n	800118e <HAL_GPIO_DeInit+0x1e>
 800118a:	e8bd 8ff0 	ldmia.w	sp!, {r4, r5, r6, r7, r8, r9, sl, fp, pc}
 800118e:	fa0a fc03 	lsl.w	ip, sl, r3
 8001192:	ea1c 0401 	ands.w	r4, ip, r1
 8001196:	d052      	beq.n	800123e <HAL_GPIO_DeInit+0xce>
 8001198:	f023 0503 	bic.w	r5, r3, #3
 800119c:	f105 4580 	add.w	r5, r5, #1073741824	; 0x40000000
 80011a0:	f505 3580 	add.w	r5, r5, #65536	; 0x10000
 80011a4:	f003 0703 	and.w	r7, r3, #3
 80011a8:	68ae      	ldr	r6, [r5, #8]
 80011aa:	00bf      	lsls	r7, r7, #2
 80011ac:	fa08 f907 	lsl.w	r9, r8, r7
 80011b0:	f1b0 4f90 	cmp.w	r0, #1207959552	; 0x48000000
 80011b4:	ea09 0e06 	and.w	lr, r9, r6
 80011b8:	d043      	beq.n	8001242 <HAL_GPIO_DeInit+0xd2>
 80011ba:	4e27      	ldr	r6, [pc, #156]	; (8001258 <HAL_GPIO_DeInit+0xe8>)
 80011bc:	42b0      	cmp	r0, r6
 80011be:	d042      	beq.n	8001246 <HAL_GPIO_DeInit+0xd6>
 80011c0:	f506 6680 	add.w	r6, r6, #1024	; 0x400
 80011c4:	42b0      	cmp	r0, r6
 80011c6:	d040      	beq.n	800124a <HAL_GPIO_DeInit+0xda>
 80011c8:	f506 6680 	add.w	r6, r6, #1024	; 0x400
 80011cc:	42b0      	cmp	r0, r6
 80011ce:	d03e      	beq.n	800124e <HAL_GPIO_DeInit+0xde>
 80011d0:	f506 6680 	add.w	r6, r6, #1024	; 0x400
 80011d4:	42b0      	cmp	r0, r6
 80011d6:	bf0c      	ite	eq
 80011d8:	2604      	moveq	r6, #4
 80011da:	2605      	movne	r6, #5
 80011dc:	40be      	lsls	r6, r7
 80011de:	4576      	cmp	r6, lr
 80011e0:	d110      	bne.n	8001204 <HAL_GPIO_DeInit+0x94>
 80011e2:	6816      	ldr	r6, [r2, #0]
 80011e4:	43e4      	mvns	r4, r4
 80011e6:	4026      	ands	r6, r4
 80011e8:	6016      	str	r6, [r2, #0]
 80011ea:	6856      	ldr	r6, [r2, #4]
 80011ec:	4026      	ands	r6, r4
 80011ee:	6056      	str	r6, [r2, #4]
 80011f0:	6896      	ldr	r6, [r2, #8]
 80011f2:	4026      	ands	r6, r4
 80011f4:	6096      	str	r6, [r2, #8]
 80011f6:	68d6      	ldr	r6, [r2, #12]
 80011f8:	4034      	ands	r4, r6
 80011fa:	60d4      	str	r4, [r2, #12]
 80011fc:	68ac      	ldr	r4, [r5, #8]
 80011fe:	ea24 0409 	bic.w	r4, r4, r9
 8001202:	60ac      	str	r4, [r5, #8]
 8001204:	005c      	lsls	r4, r3, #1
 8001206:	6805      	ldr	r5, [r0, #0]
 8001208:	fa0b f404 	lsl.w	r4, fp, r4
 800120c:	43e4      	mvns	r4, r4
 800120e:	08de      	lsrs	r6, r3, #3
 8001210:	4025      	ands	r5, r4
 8001212:	eb00 0686 	add.w	r6, r0, r6, lsl #2
 8001216:	6005      	str	r5, [r0, #0]
 8001218:	f003 0507 	and.w	r5, r3, #7
 800121c:	6a37      	ldr	r7, [r6, #32]
 800121e:	00ad      	lsls	r5, r5, #2
 8001220:	fa08 f505 	lsl.w	r5, r8, r5
 8001224:	ea27 0505 	bic.w	r5, r7, r5
 8001228:	6235      	str	r5, [r6, #32]
 800122a:	68c5      	ldr	r5, [r0, #12]
 800122c:	4025      	ands	r5, r4
 800122e:	60c5      	str	r5, [r0, #12]
 8001230:	6845      	ldr	r5, [r0, #4]
 8001232:	ea25 050c 	bic.w	r5, r5, ip
 8001236:	6045      	str	r5, [r0, #4]
 8001238:	6885      	ldr	r5, [r0, #8]
 800123a:	402c      	ands	r4, r5
 800123c:	6084      	str	r4, [r0, #8]
 800123e:	3301      	adds	r3, #1
 8001240:	e7a0      	b.n	8001184 <HAL_GPIO_DeInit+0x14>
 8001242:	2600      	movs	r6, #0
 8001244:	e7ca      	b.n	80011dc <HAL_GPIO_DeInit+0x6c>
 8001246:	2601      	movs	r6, #1
 8001248:	e7c8      	b.n	80011dc <HAL_GPIO_DeInit+0x6c>
 800124a:	2602      	movs	r6, #2
 800124c:	e7c6      	b.n	80011dc <HAL_GPIO_DeInit+0x6c>
 800124e:	2603      	movs	r6, #3
 8001250:	e7c4      	b.n	80011dc <HAL_GPIO_DeInit+0x6c>
 8001252:	bf00      	nop
 8001254:	40010400 	.word	0x40010400
 8001258:	48000400 	.word	0x48000400

0800125c <HAL_RCC_OscConfig>:
 800125c:	e92d 47f3 	stmdb	sp!, {r0, r1, r4, r5, r6, r7, r8, r9, sl, lr}
 8001260:	4605      	mov	r5, r0
 8001262:	b908      	cbnz	r0, 8001268 <HAL_RCC_OscConfig+0xc>
 8001264:	2001      	movs	r0, #1
 8001266:	e05f      	b.n	8001328 <HAL_RCC_OscConfig+0xcc>
 8001268:	6803      	ldr	r3, [r0, #0]
 800126a:	07da      	lsls	r2, r3, #31
 800126c:	d411      	bmi.n	8001292 <HAL_RCC_OscConfig+0x36>
 800126e:	682b      	ldr	r3, [r5, #0]
 8001270:	079b      	lsls	r3, r3, #30
 8001272:	f100 8087 	bmi.w	8001384 <HAL_RCC_OscConfig+0x128>
 8001276:	682b      	ldr	r3, [r5, #0]
 8001278:	071c      	lsls	r4, r3, #28
 800127a:	f100 80f8 	bmi.w	800146e <HAL_RCC_OscConfig+0x212>
 800127e:	682b      	ldr	r3, [r5, #0]
 8001280:	0758      	lsls	r0, r3, #29
 8001282:	f100 8141 	bmi.w	8001508 <HAL_RCC_OscConfig+0x2ac>
 8001286:	69e8      	ldr	r0, [r5, #28]
 8001288:	2800      	cmp	r0, #0
 800128a:	f040 81d8 	bne.w	800163e <HAL_RCC_OscConfig+0x3e2>
 800128e:	2000      	movs	r0, #0
 8001290:	e04a      	b.n	8001328 <HAL_RCC_OscConfig+0xcc>
 8001292:	4cbb      	ldr	r4, [pc, #748]	; (8001580 <HAL_RCC_OscConfig+0x324>)
 8001294:	6863      	ldr	r3, [r4, #4]
 8001296:	f003 030c 	and.w	r3, r3, #12
 800129a:	2b04      	cmp	r3, #4
 800129c:	d007      	beq.n	80012ae <HAL_RCC_OscConfig+0x52>
 800129e:	6863      	ldr	r3, [r4, #4]
 80012a0:	f003 030c 	and.w	r3, r3, #12
 80012a4:	2b08      	cmp	r3, #8
 80012a6:	d116      	bne.n	80012d6 <HAL_RCC_OscConfig+0x7a>
 80012a8:	6863      	ldr	r3, [r4, #4]
 80012aa:	03df      	lsls	r7, r3, #15
 80012ac:	d513      	bpl.n	80012d6 <HAL_RCC_OscConfig+0x7a>
 80012ae:	f44f 3300 	mov.w	r3, #131072	; 0x20000
 80012b2:	fa93 f2a3 	rbit	r2, r3
 80012b6:	6821      	ldr	r1, [r4, #0]
 80012b8:	fa93 f3a3 	rbit	r3, r3
 80012bc:	fab3 f383 	clz	r3, r3
 80012c0:	f003 031f 	and.w	r3, r3, #31
 80012c4:	2201      	movs	r2, #1
 80012c6:	fa02 f303 	lsl.w	r3, r2, r3
 80012ca:	420b      	tst	r3, r1
 80012cc:	d0cf      	beq.n	800126e <HAL_RCC_OscConfig+0x12>
 80012ce:	686b      	ldr	r3, [r5, #4]
 80012d0:	2b00      	cmp	r3, #0
 80012d2:	d1cc      	bne.n	800126e <HAL_RCC_OscConfig+0x12>
 80012d4:	e7c6      	b.n	8001264 <HAL_RCC_OscConfig+0x8>
 80012d6:	686a      	ldr	r2, [r5, #4]
 80012d8:	f5b2 3f80 	cmp.w	r2, #65536	; 0x10000
 80012dc:	d127      	bne.n	800132e <HAL_RCC_OscConfig+0xd2>
 80012de:	6823      	ldr	r3, [r4, #0]
 80012e0:	f443 3380 	orr.w	r3, r3, #65536	; 0x10000
 80012e4:	6023      	str	r3, [r4, #0]
 80012e6:	6ae3      	ldr	r3, [r4, #44]	; 0x2c
 80012e8:	68a9      	ldr	r1, [r5, #8]
 80012ea:	f023 030f 	bic.w	r3, r3, #15
 80012ee:	430b      	orrs	r3, r1
 80012f0:	62e3      	str	r3, [r4, #44]	; 0x2c
 80012f2:	b362      	cbz	r2, 800134e <HAL_RCC_OscConfig+0xf2>
 80012f4:	f7ff fcf4 	bl	8000ce0 <HAL_GetTick>
 80012f8:	f44f 3600 	mov.w	r6, #131072	; 0x20000
 80012fc:	4680      	mov	r8, r0
 80012fe:	2701      	movs	r7, #1
 8001300:	fa96 f3a6 	rbit	r3, r6
 8001304:	6822      	ldr	r2, [r4, #0]
 8001306:	fa96 f3a6 	rbit	r3, r6
 800130a:	fab3 f383 	clz	r3, r3
 800130e:	f003 031f 	and.w	r3, r3, #31
 8001312:	fa07 f303 	lsl.w	r3, r7, r3
 8001316:	4213      	tst	r3, r2
 8001318:	d1a9      	bne.n	800126e <HAL_RCC_OscConfig+0x12>
 800131a:	f7ff fce1 	bl	8000ce0 <HAL_GetTick>
 800131e:	eba0 0008 	sub.w	r0, r0, r8
 8001322:	2864      	cmp	r0, #100	; 0x64
 8001324:	d9ec      	bls.n	8001300 <HAL_RCC_OscConfig+0xa4>
 8001326:	2003      	movs	r0, #3
 8001328:	b002      	add	sp, #8
 800132a:	e8bd 87f0 	ldmia.w	sp!, {r4, r5, r6, r7, r8, r9, sl, pc}
 800132e:	6823      	ldr	r3, [r4, #0]
 8001330:	b932      	cbnz	r2, 8001340 <HAL_RCC_OscConfig+0xe4>
 8001332:	f423 3380 	bic.w	r3, r3, #65536	; 0x10000
 8001336:	6023      	str	r3, [r4, #0]
 8001338:	6823      	ldr	r3, [r4, #0]
 800133a:	f423 2380 	bic.w	r3, r3, #262144	; 0x40000
 800133e:	e7d1      	b.n	80012e4 <HAL_RCC_OscConfig+0x88>
 8001340:	f5b2 2fa0 	cmp.w	r2, #327680	; 0x50000
 8001344:	d1f5      	bne.n	8001332 <HAL_RCC_OscConfig+0xd6>
 8001346:	f443 2380 	orr.w	r3, r3, #262144	; 0x40000
 800134a:	6023      	str	r3, [r4, #0]
 800134c:	e7c7      	b.n	80012de <HAL_RCC_OscConfig+0x82>
 800134e:	f7ff fcc7 	bl	8000ce0 <HAL_GetTick>
 8001352:	f44f 3600 	mov.w	r6, #131072	; 0x20000
 8001356:	4680      	mov	r8, r0
 8001358:	2701      	movs	r7, #1
 800135a:	fa96 f3a6 	rbit	r3, r6
 800135e:	6822      	ldr	r2, [r4, #0]
 8001360:	fa96 f3a6 	rbit	r3, r6
 8001364:	fab3 f383 	clz	r3, r3
 8001368:	f003 031f 	and.w	r3, r3, #31
 800136c:	fa07 f303 	lsl.w	r3, r7, r3
 8001370:	4213      	tst	r3, r2
 8001372:	f43f af7c 	beq.w	800126e <HAL_RCC_OscConfig+0x12>
 8001376:	f7ff fcb3 	bl	8000ce0 <HAL_GetTick>
 800137a:	eba0 0008 	sub.w	r0, r0, r8
 800137e:	2864      	cmp	r0, #100	; 0x64
 8001380:	d9eb      	bls.n	800135a <HAL_RCC_OscConfig+0xfe>
 8001382:	e7d0      	b.n	8001326 <HAL_RCC_OscConfig+0xca>
 8001384:	4c7e      	ldr	r4, [pc, #504]	; (8001580 <HAL_RCC_OscConfig+0x324>)
 8001386:	6863      	ldr	r3, [r4, #4]
 8001388:	f013 0f0c 	tst.w	r3, #12
 800138c:	d007      	beq.n	800139e <HAL_RCC_OscConfig+0x142>
 800138e:	6863      	ldr	r3, [r4, #4]
 8001390:	f003 030c 	and.w	r3, r3, #12
 8001394:	2b08      	cmp	r3, #8
 8001396:	d122      	bne.n	80013de <HAL_RCC_OscConfig+0x182>
 8001398:	6863      	ldr	r3, [r4, #4]
 800139a:	03de      	lsls	r6, r3, #15
 800139c:	d41f      	bmi.n	80013de <HAL_RCC_OscConfig+0x182>
 800139e:	2302      	movs	r3, #2
 80013a0:	fa93 f2a3 	rbit	r2, r3
 80013a4:	6821      	ldr	r1, [r4, #0]
 80013a6:	fa93 f3a3 	rbit	r3, r3
 80013aa:	fab3 f383 	clz	r3, r3
 80013ae:	f003 031f 	and.w	r3, r3, #31
 80013b2:	2201      	movs	r2, #1
 80013b4:	fa02 f303 	lsl.w	r3, r2, r3
 80013b8:	420b      	tst	r3, r1
 80013ba:	d003      	beq.n	80013c4 <HAL_RCC_OscConfig+0x168>
 80013bc:	692b      	ldr	r3, [r5, #16]
 80013be:	4293      	cmp	r3, r2
 80013c0:	f47f af50 	bne.w	8001264 <HAL_RCC_OscConfig+0x8>
 80013c4:	6821      	ldr	r1, [r4, #0]
 80013c6:	23f8      	movs	r3, #248	; 0xf8
 80013c8:	fa93 f3a3 	rbit	r3, r3
 80013cc:	fab3 f283 	clz	r2, r3
 80013d0:	696b      	ldr	r3, [r5, #20]
 80013d2:	4093      	lsls	r3, r2
 80013d4:	f021 02f8 	bic.w	r2, r1, #248	; 0xf8
 80013d8:	4313      	orrs	r3, r2
 80013da:	6023      	str	r3, [r4, #0]
 80013dc:	e74b      	b.n	8001276 <HAL_RCC_OscConfig+0x1a>
 80013de:	692a      	ldr	r2, [r5, #16]
 80013e0:	2601      	movs	r6, #1
 80013e2:	b30a      	cbz	r2, 8001428 <HAL_RCC_OscConfig+0x1cc>
 80013e4:	fa96 f3a6 	rbit	r3, r6
 80013e8:	fab3 f383 	clz	r3, r3
 80013ec:	f103 5384 	add.w	r3, r3, #276824064	; 0x10800000
 80013f0:	f503 1384 	add.w	r3, r3, #1081344	; 0x108000
 80013f4:	009b      	lsls	r3, r3, #2
 80013f6:	2702      	movs	r7, #2
 80013f8:	601e      	str	r6, [r3, #0]
 80013fa:	f7ff fc71 	bl	8000ce0 <HAL_GetTick>
 80013fe:	4680      	mov	r8, r0
 8001400:	fa97 f3a7 	rbit	r3, r7
 8001404:	6822      	ldr	r2, [r4, #0]
 8001406:	fa97 f3a7 	rbit	r3, r7
 800140a:	fab3 f383 	clz	r3, r3
 800140e:	f003 031f 	and.w	r3, r3, #31
 8001412:	fa06 f303 	lsl.w	r3, r6, r3
 8001416:	4213      	tst	r3, r2
 8001418:	d1d4      	bne.n	80013c4 <HAL_RCC_OscConfig+0x168>
 800141a:	f7ff fc61 	bl	8000ce0 <HAL_GetTick>
 800141e:	eba0 0008 	sub.w	r0, r0, r8
 8001422:	2802      	cmp	r0, #2
 8001424:	d9ec      	bls.n	8001400 <HAL_RCC_OscConfig+0x1a4>
 8001426:	e77e      	b.n	8001326 <HAL_RCC_OscConfig+0xca>
 8001428:	fa96 f3a6 	rbit	r3, r6
 800142c:	fab3 f383 	clz	r3, r3
 8001430:	f103 5384 	add.w	r3, r3, #276824064	; 0x10800000
 8001434:	f503 1384 	add.w	r3, r3, #1081344	; 0x108000
 8001438:	009b      	lsls	r3, r3, #2
 800143a:	2702      	movs	r7, #2
 800143c:	601a      	str	r2, [r3, #0]
 800143e:	f7ff fc4f 	bl	8000ce0 <HAL_GetTick>
 8001442:	4680      	mov	r8, r0
 8001444:	fa97 f3a7 	rbit	r3, r7
 8001448:	6822      	ldr	r2, [r4, #0]
 800144a:	fa97 f3a7 	rbit	r3, r7
 800144e:	fab3 f383 	clz	r3, r3
 8001452:	f003 031f 	and.w	r3, r3, #31
 8001456:	fa06 f303 	lsl.w	r3, r6, r3
 800145a:	4213      	tst	r3, r2
 800145c:	f43f af0b 	beq.w	8001276 <HAL_RCC_OscConfig+0x1a>
 8001460:	f7ff fc3e 	bl	8000ce0 <HAL_GetTick>
 8001464:	eba0 0008 	sub.w	r0, r0, r8
 8001468:	2802      	cmp	r0, #2
 800146a:	d9eb      	bls.n	8001444 <HAL_RCC_OscConfig+0x1e8>
 800146c:	e75b      	b.n	8001326 <HAL_RCC_OscConfig+0xca>
 800146e:	69aa      	ldr	r2, [r5, #24]
 8001470:	4e43      	ldr	r6, [pc, #268]	; (8001580 <HAL_RCC_OscConfig+0x324>)
 8001472:	4944      	ldr	r1, [pc, #272]	; (8001584 <HAL_RCC_OscConfig+0x328>)
 8001474:	2401      	movs	r4, #1
 8001476:	b31a      	cbz	r2, 80014c0 <HAL_RCC_OscConfig+0x264>
 8001478:	fa94 f3a4 	rbit	r3, r4
 800147c:	fab3 f383 	clz	r3, r3
 8001480:	440b      	add	r3, r1
 8001482:	009b      	lsls	r3, r3, #2
 8001484:	2702      	movs	r7, #2
 8001486:	601c      	str	r4, [r3, #0]
 8001488:	f7ff fc2a 	bl	8000ce0 <HAL_GetTick>
 800148c:	4680      	mov	r8, r0
 800148e:	fa97 f3a7 	rbit	r3, r7
 8001492:	fa97 f3a7 	rbit	r3, r7
 8001496:	fa97 f3a7 	rbit	r3, r7
 800149a:	6a72      	ldr	r2, [r6, #36]	; 0x24
 800149c:	fa97 f3a7 	rbit	r3, r7
 80014a0:	fab3 f383 	clz	r3, r3
 80014a4:	f003 031f 	and.w	r3, r3, #31
 80014a8:	fa04 f303 	lsl.w	r3, r4, r3
 80014ac:	4213      	tst	r3, r2
 80014ae:	f47f aee6 	bne.w	800127e <HAL_RCC_OscConfig+0x22>
 80014b2:	f7ff fc15 	bl	8000ce0 <HAL_GetTick>
 80014b6:	eba0 0008 	sub.w	r0, r0, r8
 80014ba:	2802      	cmp	r0, #2
 80014bc:	d9e7      	bls.n	800148e <HAL_RCC_OscConfig+0x232>
 80014be:	e732      	b.n	8001326 <HAL_RCC_OscConfig+0xca>
 80014c0:	fa94 f3a4 	rbit	r3, r4
 80014c4:	fab3 f383 	clz	r3, r3
 80014c8:	440b      	add	r3, r1
 80014ca:	009b      	lsls	r3, r3, #2
 80014cc:	2702      	movs	r7, #2
 80014ce:	601a      	str	r2, [r3, #0]
 80014d0:	f7ff fc06 	bl	8000ce0 <HAL_GetTick>
 80014d4:	4680      	mov	r8, r0
 80014d6:	fa97 f3a7 	rbit	r3, r7
 80014da:	fa97 f3a7 	rbit	r3, r7
 80014de:	fa97 f3a7 	rbit	r3, r7
 80014e2:	6a72      	ldr	r2, [r6, #36]	; 0x24
 80014e4:	fa97 f3a7 	rbit	r3, r7
 80014e8:	fab3 f383 	clz	r3, r3
 80014ec:	f003 031f 	and.w	r3, r3, #31
 80014f0:	fa04 f303 	lsl.w	r3, r4, r3
 80014f4:	4213      	tst	r3, r2
 80014f6:	f43f aec2 	beq.w	800127e <HAL_RCC_OscConfig+0x22>
 80014fa:	f7ff fbf1 	bl	8000ce0 <HAL_GetTick>
 80014fe:	eba0 0008 	sub.w	r0, r0, r8
 8001502:	2802      	cmp	r0, #2
 8001504:	d9e7      	bls.n	80014d6 <HAL_RCC_OscConfig+0x27a>
 8001506:	e70e      	b.n	8001326 <HAL_RCC_OscConfig+0xca>
 8001508:	4c1d      	ldr	r4, [pc, #116]	; (8001580 <HAL_RCC_OscConfig+0x324>)
 800150a:	69e3      	ldr	r3, [r4, #28]
 800150c:	00d9      	lsls	r1, r3, #3
 800150e:	d434      	bmi.n	800157a <HAL_RCC_OscConfig+0x31e>
 8001510:	69e3      	ldr	r3, [r4, #28]
 8001512:	f043 5380 	orr.w	r3, r3, #268435456	; 0x10000000
 8001516:	61e3      	str	r3, [r4, #28]
 8001518:	69e3      	ldr	r3, [r4, #28]
 800151a:	f003 5380 	and.w	r3, r3, #268435456	; 0x10000000
 800151e:	9301      	str	r3, [sp, #4]
 8001520:	9b01      	ldr	r3, [sp, #4]
 8001522:	2601      	movs	r6, #1
 8001524:	4f18      	ldr	r7, [pc, #96]	; (8001588 <HAL_RCC_OscConfig+0x32c>)
 8001526:	683b      	ldr	r3, [r7, #0]
 8001528:	05da      	lsls	r2, r3, #23
 800152a:	d52f      	bpl.n	800158c <HAL_RCC_OscConfig+0x330>
 800152c:	68eb      	ldr	r3, [r5, #12]
 800152e:	2b01      	cmp	r3, #1
 8001530:	d13d      	bne.n	80015ae <HAL_RCC_OscConfig+0x352>
 8001532:	6a23      	ldr	r3, [r4, #32]
 8001534:	f043 0301 	orr.w	r3, r3, #1
 8001538:	6223      	str	r3, [r4, #32]
 800153a:	f7ff fbd1 	bl	8000ce0 <HAL_GetTick>
 800153e:	2702      	movs	r7, #2
 8001540:	4682      	mov	sl, r0
 8001542:	46b9      	mov	r9, r7
 8001544:	f04f 0801 	mov.w	r8, #1
 8001548:	fa97 f3a7 	rbit	r3, r7
 800154c:	fa97 f3a7 	rbit	r3, r7
 8001550:	2b00      	cmp	r3, #0
 8001552:	d06c      	beq.n	800162e <HAL_RCC_OscConfig+0x3d2>
 8001554:	6a22      	ldr	r2, [r4, #32]
 8001556:	fa99 f3a9 	rbit	r3, r9
 800155a:	fab3 f383 	clz	r3, r3
 800155e:	f003 031f 	and.w	r3, r3, #31
 8001562:	fa08 f303 	lsl.w	r3, r8, r3
 8001566:	4213      	tst	r3, r2
 8001568:	d058      	beq.n	800161c <HAL_RCC_OscConfig+0x3c0>
 800156a:	2e00      	cmp	r6, #0
 800156c:	f43f ae8b 	beq.w	8001286 <HAL_RCC_OscConfig+0x2a>
 8001570:	69e3      	ldr	r3, [r4, #28]
 8001572:	f023 5380 	bic.w	r3, r3, #268435456	; 0x10000000
 8001576:	61e3      	str	r3, [r4, #28]
 8001578:	e685      	b.n	8001286 <HAL_RCC_OscConfig+0x2a>
 800157a:	2600      	movs	r6, #0
 800157c:	e7d2      	b.n	8001524 <HAL_RCC_OscConfig+0x2c8>
 800157e:	bf00      	nop
 8001580:	40021000 	.word	0x40021000
 8001584:	10908120 	.word	0x10908120
 8001588:	40007000 	.word	0x40007000
 800158c:	683b      	ldr	r3, [r7, #0]
 800158e:	f443 7380 	orr.w	r3, r3, #256	; 0x100
 8001592:	603b      	str	r3, [r7, #0]
 8001594:	f7ff fba4 	bl	8000ce0 <HAL_GetTick>
 8001598:	4680      	mov	r8, r0
 800159a:	683b      	ldr	r3, [r7, #0]
 800159c:	05db      	lsls	r3, r3, #23
 800159e:	d4c5      	bmi.n	800152c <HAL_RCC_OscConfig+0x2d0>
 80015a0:	f7ff fb9e 	bl	8000ce0 <HAL_GetTick>
 80015a4:	eba0 0008 	sub.w	r0, r0, r8
 80015a8:	2864      	cmp	r0, #100	; 0x64
 80015aa:	d9f6      	bls.n	800159a <HAL_RCC_OscConfig+0x33e>
 80015ac:	e6bb      	b.n	8001326 <HAL_RCC_OscConfig+0xca>
 80015ae:	bb3b      	cbnz	r3, 8001600 <HAL_RCC_OscConfig+0x3a4>
 80015b0:	6a23      	ldr	r3, [r4, #32]
 80015b2:	f023 0301 	bic.w	r3, r3, #1
 80015b6:	6223      	str	r3, [r4, #32]
 80015b8:	6a23      	ldr	r3, [r4, #32]
 80015ba:	f023 0304 	bic.w	r3, r3, #4
 80015be:	6223      	str	r3, [r4, #32]
 80015c0:	f7ff fb8e 	bl	8000ce0 <HAL_GetTick>
 80015c4:	2702      	movs	r7, #2
 80015c6:	4682      	mov	sl, r0
 80015c8:	46b9      	mov	r9, r7
 80015ca:	f04f 0801 	mov.w	r8, #1
 80015ce:	fa97 f3a7 	rbit	r3, r7
 80015d2:	fa97 f3a7 	rbit	r3, r7
 80015d6:	b373      	cbz	r3, 8001636 <HAL_RCC_OscConfig+0x3da>
 80015d8:	6a22      	ldr	r2, [r4, #32]
 80015da:	fa99 f3a9 	rbit	r3, r9
 80015de:	fab3 f383 	clz	r3, r3
 80015e2:	f003 031f 	and.w	r3, r3, #31
 80015e6:	fa08 f303 	lsl.w	r3, r8, r3
 80015ea:	4213      	tst	r3, r2
 80015ec:	d0bd      	beq.n	800156a <HAL_RCC_OscConfig+0x30e>
 80015ee:	f7ff fb77 	bl	8000ce0 <HAL_GetTick>
 80015f2:	f241 3388 	movw	r3, #5000	; 0x1388
 80015f6:	eba0 000a 	sub.w	r0, r0, sl
 80015fa:	4298      	cmp	r0, r3
 80015fc:	d9e7      	bls.n	80015ce <HAL_RCC_OscConfig+0x372>
 80015fe:	e692      	b.n	8001326 <HAL_RCC_OscConfig+0xca>
 8001600:	2b05      	cmp	r3, #5
 8001602:	6a23      	ldr	r3, [r4, #32]
 8001604:	d103      	bne.n	800160e <HAL_RCC_OscConfig+0x3b2>
 8001606:	f043 0304 	orr.w	r3, r3, #4
 800160a:	6223      	str	r3, [r4, #32]
 800160c:	e791      	b.n	8001532 <HAL_RCC_OscConfig+0x2d6>
 800160e:	f023 0301 	bic.w	r3, r3, #1
 8001612:	6223      	str	r3, [r4, #32]
 8001614:	6a23      	ldr	r3, [r4, #32]
 8001616:	f023 0304 	bic.w	r3, r3, #4
 800161a:	e78d      	b.n	8001538 <HAL_RCC_OscConfig+0x2dc>
 800161c:	f7ff fb60 	bl	8000ce0 <HAL_GetTick>
 8001620:	f241 3388 	movw	r3, #5000	; 0x1388
 8001624:	eba0 000a 	sub.w	r0, r0, sl
 8001628:	4298      	cmp	r0, r3
 800162a:	d98d      	bls.n	8001548 <HAL_RCC_OscConfig+0x2ec>
 800162c:	e67b      	b.n	8001326 <HAL_RCC_OscConfig+0xca>
 800162e:	fa97 f3a7 	rbit	r3, r7
 8001632:	6a62      	ldr	r2, [r4, #36]	; 0x24
 8001634:	e78f      	b.n	8001556 <HAL_RCC_OscConfig+0x2fa>
 8001636:	fa97 f3a7 	rbit	r3, r7
 800163a:	6a62      	ldr	r2, [r4, #36]	; 0x24
 800163c:	e7cd      	b.n	80015da <HAL_RCC_OscConfig+0x37e>
 800163e:	4b4a      	ldr	r3, [pc, #296]	; (8001768 <HAL_RCC_OscConfig+0x50c>)
 8001640:	685a      	ldr	r2, [r3, #4]
 8001642:	f002 020c 	and.w	r2, r2, #12
 8001646:	2a08      	cmp	r2, #8
 8001648:	461c      	mov	r4, r3
 800164a:	d07b      	beq.n	8001744 <HAL_RCC_OscConfig+0x4e8>
 800164c:	2802      	cmp	r0, #2
 800164e:	f04f 7380 	mov.w	r3, #16777216	; 0x1000000
 8001652:	d152      	bne.n	80016fa <HAL_RCC_OscConfig+0x49e>
 8001654:	fa93 f3a3 	rbit	r3, r3
 8001658:	fab3 f383 	clz	r3, r3
 800165c:	f103 5384 	add.w	r3, r3, #276824064	; 0x10800000
 8001660:	f503 1384 	add.w	r3, r3, #1081344	; 0x108000
 8001664:	009b      	lsls	r3, r3, #2
 8001666:	2200      	movs	r2, #0
 8001668:	601a      	str	r2, [r3, #0]
 800166a:	f7ff fb39 	bl	8000ce0 <HAL_GetTick>
 800166e:	f04f 7700 	mov.w	r7, #33554432	; 0x2000000
 8001672:	4680      	mov	r8, r0
 8001674:	2601      	movs	r6, #1
 8001676:	fa97 f3a7 	rbit	r3, r7
 800167a:	6822      	ldr	r2, [r4, #0]
 800167c:	fa97 f3a7 	rbit	r3, r7
 8001680:	fab3 f383 	clz	r3, r3
 8001684:	f003 031f 	and.w	r3, r3, #31
 8001688:	fa06 f303 	lsl.w	r3, r6, r3
 800168c:	4213      	tst	r3, r2
 800168e:	d12d      	bne.n	80016ec <HAL_RCC_OscConfig+0x490>
 8001690:	e9d5 1308 	ldrd	r1, r3, [r5, #32]
 8001694:	6862      	ldr	r2, [r4, #4]
 8001696:	430b      	orrs	r3, r1
 8001698:	f422 1274 	bic.w	r2, r2, #3997696	; 0x3d0000
 800169c:	4313      	orrs	r3, r2
 800169e:	6063      	str	r3, [r4, #4]
 80016a0:	f04f 7380 	mov.w	r3, #16777216	; 0x1000000
 80016a4:	fa93 f3a3 	rbit	r3, r3
 80016a8:	fab3 f383 	clz	r3, r3
 80016ac:	f103 5384 	add.w	r3, r3, #276824064	; 0x10800000
 80016b0:	f503 1384 	add.w	r3, r3, #1081344	; 0x108000
 80016b4:	009b      	lsls	r3, r3, #2
 80016b6:	f04f 7500 	mov.w	r5, #33554432	; 0x2000000
 80016ba:	601e      	str	r6, [r3, #0]
 80016bc:	f7ff fb10 	bl	8000ce0 <HAL_GetTick>
 80016c0:	2601      	movs	r6, #1
 80016c2:	4607      	mov	r7, r0
 80016c4:	fa95 f3a5 	rbit	r3, r5
 80016c8:	6822      	ldr	r2, [r4, #0]
 80016ca:	fa95 f3a5 	rbit	r3, r5
 80016ce:	fab3 f383 	clz	r3, r3
 80016d2:	f003 031f 	and.w	r3, r3, #31
 80016d6:	fa06 f303 	lsl.w	r3, r6, r3
 80016da:	4213      	tst	r3, r2
 80016dc:	f47f add7 	bne.w	800128e <HAL_RCC_OscConfig+0x32>
 80016e0:	f7ff fafe 	bl	8000ce0 <HAL_GetTick>
 80016e4:	1bc0      	subs	r0, r0, r7
 80016e6:	2802      	cmp	r0, #2
 80016e8:	d9ec      	bls.n	80016c4 <HAL_RCC_OscConfig+0x468>
 80016ea:	e61c      	b.n	8001326 <HAL_RCC_OscConfig+0xca>
 80016ec:	f7ff faf8 	bl	8000ce0 <HAL_GetTick>
 80016f0:	eba0 0008 	sub.w	r0, r0, r8
 80016f4:	2802      	cmp	r0, #2
 80016f6:	d9be      	bls.n	8001676 <HAL_RCC_OscConfig+0x41a>
 80016f8:	e615      	b.n	8001326 <HAL_RCC_OscConfig+0xca>
 80016fa:	fa93 f3a3 	rbit	r3, r3
 80016fe:	fab3 f383 	clz	r3, r3
 8001702:	f103 5384 	add.w	r3, r3, #276824064	; 0x10800000
 8001706:	f503 1384 	add.w	r3, r3, #1081344	; 0x108000
 800170a:	009b      	lsls	r3, r3, #2
 800170c:	2200      	movs	r2, #0
 800170e:	601a      	str	r2, [r3, #0]
 8001710:	f7ff fae6 	bl	8000ce0 <HAL_GetTick>
 8001714:	f04f 7500 	mov.w	r5, #33554432	; 0x2000000
 8001718:	4607      	mov	r7, r0
 800171a:	2601      	movs	r6, #1
 800171c:	fa95 f3a5 	rbit	r3, r5
 8001720:	6822      	ldr	r2, [r4, #0]
 8001722:	fa95 f3a5 	rbit	r3, r5
 8001726:	fab3 f383 	clz	r3, r3
 800172a:	f003 031f 	and.w	r3, r3, #31
 800172e:	fa06 f303 	lsl.w	r3, r6, r3
 8001732:	4213      	tst	r3, r2
 8001734:	f43f adab 	beq.w	800128e <HAL_RCC_OscConfig+0x32>
 8001738:	f7ff fad2 	bl	8000ce0 <HAL_GetTick>
 800173c:	1bc0      	subs	r0, r0, r7
 800173e:	2802      	cmp	r0, #2
 8001740:	d9ec      	bls.n	800171c <HAL_RCC_OscConfig+0x4c0>
 8001742:	e5f0      	b.n	8001326 <HAL_RCC_OscConfig+0xca>
 8001744:	2801      	cmp	r0, #1
 8001746:	f43f adef 	beq.w	8001328 <HAL_RCC_OscConfig+0xcc>
 800174a:	6858      	ldr	r0, [r3, #4]
 800174c:	6a2b      	ldr	r3, [r5, #32]
 800174e:	f400 3280 	and.w	r2, r0, #65536	; 0x10000
 8001752:	429a      	cmp	r2, r3
 8001754:	f47f ad86 	bne.w	8001264 <HAL_RCC_OscConfig+0x8>
 8001758:	6a6b      	ldr	r3, [r5, #36]	; 0x24
 800175a:	f400 1070 	and.w	r0, r0, #3932160	; 0x3c0000
 800175e:	1ac0      	subs	r0, r0, r3
 8001760:	bf18      	it	ne
 8001762:	2001      	movne	r0, #1
 8001764:	e5e0      	b.n	8001328 <HAL_RCC_OscConfig+0xcc>
 8001766:	bf00      	nop
 8001768:	40021000 	.word	0x40021000

0800176c <HAL_RCC_GetSysClockFreq>:
 800176c:	b510      	push	{r4, lr}
 800176e:	4c13      	ldr	r4, [pc, #76]	; (80017bc <HAL_RCC_GetSysClockFreq+0x50>)
 8001770:	6861      	ldr	r1, [r4, #4]
 8001772:	f001 030c 	and.w	r3, r1, #12
 8001776:	2b08      	cmp	r3, #8
 8001778:	d11e      	bne.n	80017b8 <HAL_RCC_GetSysClockFreq+0x4c>
 800177a:	f44f 1370 	mov.w	r3, #3932160	; 0x3c0000
 800177e:	fa93 f3a3 	rbit	r3, r3
 8001782:	f401 1270 	and.w	r2, r1, #3932160	; 0x3c0000
 8001786:	fab3 f383 	clz	r3, r3
 800178a:	fa22 f303 	lsr.w	r3, r2, r3
 800178e:	4a0c      	ldr	r2, [pc, #48]	; (80017c0 <HAL_RCC_GetSysClockFreq+0x54>)
 8001790:	5cd0      	ldrb	r0, [r2, r3]
 8001792:	6ae3      	ldr	r3, [r4, #44]	; 0x2c
 8001794:	220f      	movs	r2, #15
 8001796:	fa92 f2a2 	rbit	r2, r2
 800179a:	fab2 f282 	clz	r2, r2
 800179e:	f003 030f 	and.w	r3, r3, #15
 80017a2:	40d3      	lsrs	r3, r2
 80017a4:	4a07      	ldr	r2, [pc, #28]	; (80017c4 <HAL_RCC_GetSysClockFreq+0x58>)
 80017a6:	5cd2      	ldrb	r2, [r2, r3]
 80017a8:	03cb      	lsls	r3, r1, #15
 80017aa:	bf4a      	itet	mi
 80017ac:	4b06      	ldrmi	r3, [pc, #24]	; (80017c8 <HAL_RCC_GetSysClockFreq+0x5c>)
 80017ae:	4b07      	ldrpl	r3, [pc, #28]	; (80017cc <HAL_RCC_GetSysClockFreq+0x60>)
 80017b0:	fbb3 f3f2 	udivmi	r3, r3, r2
 80017b4:	4358      	muls	r0, r3
 80017b6:	bd10      	pop	{r4, pc}
 80017b8:	4803      	ldr	r0, [pc, #12]	; (80017c8 <HAL_RCC_GetSysClockFreq+0x5c>)
 80017ba:	e7fc      	b.n	80017b6 <HAL_RCC_GetSysClockFreq+0x4a>
 80017bc:	40021000 	.word	0x40021000
 80017c0:	08003062 	.word	0x08003062
 80017c4:	08003072 	.word	0x08003072
 80017c8:	007a1200 	.word	0x007a1200
 80017cc:	003d0900 	.word	0x003d0900

080017d0 <HAL_RCC_ClockConfig>:
 80017d0:	e92d 41f0 	stmdb	sp!, {r4, r5, r6, r7, r8, lr}
 80017d4:	460d      	mov	r5, r1
 80017d6:	4604      	mov	r4, r0
 80017d8:	b910      	cbnz	r0, 80017e0 <HAL_RCC_ClockConfig+0x10>
 80017da:	2001      	movs	r0, #1
 80017dc:	e8bd 81f0 	ldmia.w	sp!, {r4, r5, r6, r7, r8, pc}
 80017e0:	4a4c      	ldr	r2, [pc, #304]	; (8001914 <HAL_RCC_ClockConfig+0x144>)
 80017e2:	6813      	ldr	r3, [r2, #0]
 80017e4:	f003 0307 	and.w	r3, r3, #7
 80017e8:	428b      	cmp	r3, r1
 80017ea:	d32e      	bcc.n	800184a <HAL_RCC_ClockConfig+0x7a>
 80017ec:	6822      	ldr	r2, [r4, #0]
 80017ee:	0791      	lsls	r1, r2, #30
 80017f0:	d436      	bmi.n	8001860 <HAL_RCC_ClockConfig+0x90>
 80017f2:	07d2      	lsls	r2, r2, #31
 80017f4:	d43c      	bmi.n	8001870 <HAL_RCC_ClockConfig+0xa0>
 80017f6:	4a47      	ldr	r2, [pc, #284]	; (8001914 <HAL_RCC_ClockConfig+0x144>)
 80017f8:	6813      	ldr	r3, [r2, #0]
 80017fa:	f003 0307 	and.w	r3, r3, #7
 80017fe:	42ab      	cmp	r3, r5
 8001800:	d874      	bhi.n	80018ec <HAL_RCC_ClockConfig+0x11c>
 8001802:	6822      	ldr	r2, [r4, #0]
 8001804:	4d44      	ldr	r5, [pc, #272]	; (8001918 <HAL_RCC_ClockConfig+0x148>)
 8001806:	f012 0f04 	tst.w	r2, #4
 800180a:	d17b      	bne.n	8001904 <HAL_RCC_ClockConfig+0x134>
 800180c:	0713      	lsls	r3, r2, #28
 800180e:	d506      	bpl.n	800181e <HAL_RCC_ClockConfig+0x4e>
 8001810:	686b      	ldr	r3, [r5, #4]
 8001812:	6922      	ldr	r2, [r4, #16]
 8001814:	f423 5360 	bic.w	r3, r3, #14336	; 0x3800
 8001818:	ea43 03c2 	orr.w	r3, r3, r2, lsl #3
 800181c:	606b      	str	r3, [r5, #4]
 800181e:	f7ff ffa5 	bl	800176c <HAL_RCC_GetSysClockFreq>
 8001822:	686b      	ldr	r3, [r5, #4]
 8001824:	22f0      	movs	r2, #240	; 0xf0
 8001826:	fa92 f2a2 	rbit	r2, r2
 800182a:	fab2 f282 	clz	r2, r2
 800182e:	f003 03f0 	and.w	r3, r3, #240	; 0xf0
 8001832:	40d3      	lsrs	r3, r2
 8001834:	4a39      	ldr	r2, [pc, #228]	; (800191c <HAL_RCC_ClockConfig+0x14c>)
 8001836:	5cd3      	ldrb	r3, [r2, r3]
 8001838:	40d8      	lsrs	r0, r3
 800183a:	4b39      	ldr	r3, [pc, #228]	; (8001920 <HAL_RCC_ClockConfig+0x150>)
 800183c:	6018      	str	r0, [r3, #0]
 800183e:	4b39      	ldr	r3, [pc, #228]	; (8001924 <HAL_RCC_ClockConfig+0x154>)
 8001840:	6818      	ldr	r0, [r3, #0]
 8001842:	f7ff fa0b 	bl	8000c5c <HAL_InitTick>
 8001846:	2000      	movs	r0, #0
 8001848:	e7c8      	b.n	80017dc <HAL_RCC_ClockConfig+0xc>
 800184a:	6813      	ldr	r3, [r2, #0]
 800184c:	f023 0307 	bic.w	r3, r3, #7
 8001850:	430b      	orrs	r3, r1
 8001852:	6013      	str	r3, [r2, #0]
 8001854:	6813      	ldr	r3, [r2, #0]
 8001856:	f003 0307 	and.w	r3, r3, #7
 800185a:	428b      	cmp	r3, r1
 800185c:	d1bd      	bne.n	80017da <HAL_RCC_ClockConfig+0xa>
 800185e:	e7c5      	b.n	80017ec <HAL_RCC_ClockConfig+0x1c>
 8001860:	492d      	ldr	r1, [pc, #180]	; (8001918 <HAL_RCC_ClockConfig+0x148>)
 8001862:	68a0      	ldr	r0, [r4, #8]
 8001864:	684b      	ldr	r3, [r1, #4]
 8001866:	f023 03f0 	bic.w	r3, r3, #240	; 0xf0
 800186a:	4303      	orrs	r3, r0
 800186c:	604b      	str	r3, [r1, #4]
 800186e:	e7c0      	b.n	80017f2 <HAL_RCC_ClockConfig+0x22>
 8001870:	6862      	ldr	r2, [r4, #4]
 8001872:	4e29      	ldr	r6, [pc, #164]	; (8001918 <HAL_RCC_ClockConfig+0x148>)
 8001874:	2a01      	cmp	r2, #1
 8001876:	d126      	bne.n	80018c6 <HAL_RCC_ClockConfig+0xf6>
 8001878:	f44f 3300 	mov.w	r3, #131072	; 0x20000
 800187c:	fa93 f1a3 	rbit	r1, r3
 8001880:	6831      	ldr	r1, [r6, #0]
 8001882:	fa93 f3a3 	rbit	r3, r3
 8001886:	fab3 f383 	clz	r3, r3
 800188a:	f003 031f 	and.w	r3, r3, #31
 800188e:	fa02 f303 	lsl.w	r3, r2, r3
 8001892:	420b      	tst	r3, r1
 8001894:	d0a1      	beq.n	80017da <HAL_RCC_ClockConfig+0xa>
 8001896:	6873      	ldr	r3, [r6, #4]
 8001898:	f023 0303 	bic.w	r3, r3, #3
 800189c:	431a      	orrs	r2, r3
 800189e:	6072      	str	r2, [r6, #4]
 80018a0:	f7ff fa1e 	bl	8000ce0 <HAL_GetTick>
 80018a4:	f241 3888 	movw	r8, #5000	; 0x1388
 80018a8:	4607      	mov	r7, r0
 80018aa:	6873      	ldr	r3, [r6, #4]
 80018ac:	6862      	ldr	r2, [r4, #4]
 80018ae:	f003 030c 	and.w	r3, r3, #12
 80018b2:	ebb3 0f82 	cmp.w	r3, r2, lsl #2
 80018b6:	d09e      	beq.n	80017f6 <HAL_RCC_ClockConfig+0x26>
 80018b8:	f7ff fa12 	bl	8000ce0 <HAL_GetTick>
 80018bc:	1bc0      	subs	r0, r0, r7
 80018be:	4540      	cmp	r0, r8
 80018c0:	d9f3      	bls.n	80018aa <HAL_RCC_ClockConfig+0xda>
 80018c2:	2003      	movs	r0, #3
 80018c4:	e78a      	b.n	80017dc <HAL_RCC_ClockConfig+0xc>
 80018c6:	2a02      	cmp	r2, #2
 80018c8:	bf0c      	ite	eq
 80018ca:	f04f 7300 	moveq.w	r3, #33554432	; 0x2000000
 80018ce:	2302      	movne	r3, #2
 80018d0:	fa93 f1a3 	rbit	r1, r3
 80018d4:	6830      	ldr	r0, [r6, #0]
 80018d6:	fa93 f3a3 	rbit	r3, r3
 80018da:	fab3 f383 	clz	r3, r3
 80018de:	f003 031f 	and.w	r3, r3, #31
 80018e2:	2101      	movs	r1, #1
 80018e4:	fa01 f303 	lsl.w	r3, r1, r3
 80018e8:	4203      	tst	r3, r0
 80018ea:	e7d3      	b.n	8001894 <HAL_RCC_ClockConfig+0xc4>
 80018ec:	6813      	ldr	r3, [r2, #0]
 80018ee:	f023 0307 	bic.w	r3, r3, #7
 80018f2:	432b      	orrs	r3, r5
 80018f4:	6013      	str	r3, [r2, #0]
 80018f6:	6813      	ldr	r3, [r2, #0]
 80018f8:	f003 0307 	and.w	r3, r3, #7
 80018fc:	42ab      	cmp	r3, r5
 80018fe:	f47f af6c 	bne.w	80017da <HAL_RCC_ClockConfig+0xa>
 8001902:	e77e      	b.n	8001802 <HAL_RCC_ClockConfig+0x32>
 8001904:	686b      	ldr	r3, [r5, #4]
 8001906:	68e1      	ldr	r1, [r4, #12]
 8001908:	f423 63e0 	bic.w	r3, r3, #1792	; 0x700
 800190c:	430b      	orrs	r3, r1
 800190e:	606b      	str	r3, [r5, #4]
 8001910:	e77c      	b.n	800180c <HAL_RCC_ClockConfig+0x3c>
 8001912:	bf00      	nop
 8001914:	40022000 	.word	0x40022000
 8001918:	40021000 	.word	0x40021000
 800191c:	0800304a 	.word	0x0800304a
 8001920:	20000000 	.word	0x20000000
 8001924:	20000008 	.word	0x20000008

08001928 <HAL_RCC_GetPCLK1Freq>:
 8001928:	4b08      	ldr	r3, [pc, #32]	; (800194c <HAL_RCC_GetPCLK1Freq+0x24>)
 800192a:	f44f 62e0 	mov.w	r2, #1792	; 0x700
 800192e:	685b      	ldr	r3, [r3, #4]
 8001930:	fa92 f2a2 	rbit	r2, r2
 8001934:	fab2 f282 	clz	r2, r2
 8001938:	f403 63e0 	and.w	r3, r3, #1792	; 0x700
 800193c:	40d3      	lsrs	r3, r2
 800193e:	4a04      	ldr	r2, [pc, #16]	; (8001950 <HAL_RCC_GetPCLK1Freq+0x28>)
 8001940:	5cd3      	ldrb	r3, [r2, r3]
 8001942:	4a04      	ldr	r2, [pc, #16]	; (8001954 <HAL_RCC_GetPCLK1Freq+0x2c>)
 8001944:	6810      	ldr	r0, [r2, #0]
 8001946:	40d8      	lsrs	r0, r3
 8001948:	4770      	bx	lr
 800194a:	bf00      	nop
 800194c:	40021000 	.word	0x40021000
 8001950:	0800305a 	.word	0x0800305a
 8001954:	20000000 	.word	0x20000000

08001958 <HAL_RCC_GetPCLK2Freq>:
 8001958:	4b08      	ldr	r3, [pc, #32]	; (800197c <HAL_RCC_GetPCLK2Freq+0x24>)
 800195a:	f44f 5260 	mov.w	r2, #14336	; 0x3800
 800195e:	685b      	ldr	r3, [r3, #4]
 8001960:	fa92 f2a2 	rbit	r2, r2
 8001964:	fab2 f282 	clz	r2, r2
 8001968:	f403 5360 	and.w	r3, r3, #14336	; 0x3800
 800196c:	40d3      	lsrs	r3, r2
 800196e:	4a04      	ldr	r2, [pc, #16]	; (8001980 <HAL_RCC_GetPCLK2Freq+0x28>)
 8001970:	5cd3      	ldrb	r3, [r2, r3]
 8001972:	4a04      	ldr	r2, [pc, #16]	; (8001984 <HAL_RCC_GetPCLK2Freq+0x2c>)
 8001974:	6810      	ldr	r0, [r2, #0]
 8001976:	40d8      	lsrs	r0, r3
 8001978:	4770      	bx	lr
 800197a:	bf00      	nop
 800197c:	40021000 	.word	0x40021000
 8001980:	0800305a 	.word	0x0800305a
 8001984:	20000000 	.word	0x20000000

08001988 <HAL_RCCEx_PeriphCLKConfig>:
 8001988:	6803      	ldr	r3, [r0, #0]
 800198a:	e92d 47f3 	stmdb	sp!, {r0, r1, r4, r5, r6, r7, r8, r9, sl, lr}
 800198e:	03dd      	lsls	r5, r3, #15
 8001990:	4604      	mov	r4, r0
 8001992:	d523      	bpl.n	80019dc <HAL_RCCEx_PeriphCLKConfig+0x54>
 8001994:	4d7c      	ldr	r5, [pc, #496]	; (8001b88 <HAL_RCCEx_PeriphCLKConfig+0x200>)
 8001996:	69eb      	ldr	r3, [r5, #28]
 8001998:	00d8      	lsls	r0, r3, #3
 800199a:	f100 8098 	bmi.w	8001ace <HAL_RCCEx_PeriphCLKConfig+0x146>
 800199e:	69eb      	ldr	r3, [r5, #28]
 80019a0:	f043 5380 	orr.w	r3, r3, #268435456	; 0x10000000
 80019a4:	61eb      	str	r3, [r5, #28]
 80019a6:	69eb      	ldr	r3, [r5, #28]
 80019a8:	f003 5380 	and.w	r3, r3, #268435456	; 0x10000000
 80019ac:	9301      	str	r3, [sp, #4]
 80019ae:	9b01      	ldr	r3, [sp, #4]
 80019b0:	2601      	movs	r6, #1
 80019b2:	4f76      	ldr	r7, [pc, #472]	; (8001b8c <HAL_RCCEx_PeriphCLKConfig+0x204>)
 80019b4:	683b      	ldr	r3, [r7, #0]
 80019b6:	05d9      	lsls	r1, r3, #23
 80019b8:	f140 808b 	bpl.w	8001ad2 <HAL_RCCEx_PeriphCLKConfig+0x14a>
 80019bc:	6a2b      	ldr	r3, [r5, #32]
 80019be:	f413 7340 	ands.w	r3, r3, #768	; 0x300
 80019c2:	f040 809b 	bne.w	8001afc <HAL_RCCEx_PeriphCLKConfig+0x174>
 80019c6:	6a2b      	ldr	r3, [r5, #32]
 80019c8:	6862      	ldr	r2, [r4, #4]
 80019ca:	f423 7340 	bic.w	r3, r3, #768	; 0x300
 80019ce:	4313      	orrs	r3, r2
 80019d0:	622b      	str	r3, [r5, #32]
 80019d2:	b11e      	cbz	r6, 80019dc <HAL_RCCEx_PeriphCLKConfig+0x54>
 80019d4:	69eb      	ldr	r3, [r5, #28]
 80019d6:	f023 5380 	bic.w	r3, r3, #268435456	; 0x10000000
 80019da:	61eb      	str	r3, [r5, #28]
 80019dc:	6820      	ldr	r0, [r4, #0]
 80019de:	07c7      	lsls	r7, r0, #31
 80019e0:	d506      	bpl.n	80019f0 <HAL_RCCEx_PeriphCLKConfig+0x68>
 80019e2:	4a69      	ldr	r2, [pc, #420]	; (8001b88 <HAL_RCCEx_PeriphCLKConfig+0x200>)
 80019e4:	68a1      	ldr	r1, [r4, #8]
 80019e6:	6b13      	ldr	r3, [r2, #48]	; 0x30
 80019e8:	f023 0303 	bic.w	r3, r3, #3
 80019ec:	430b      	orrs	r3, r1
 80019ee:	6313      	str	r3, [r2, #48]	; 0x30
 80019f0:	0786      	lsls	r6, r0, #30
 80019f2:	d506      	bpl.n	8001a02 <HAL_RCCEx_PeriphCLKConfig+0x7a>
 80019f4:	4a64      	ldr	r2, [pc, #400]	; (8001b88 <HAL_RCCEx_PeriphCLKConfig+0x200>)
 80019f6:	68e1      	ldr	r1, [r4, #12]
 80019f8:	6b13      	ldr	r3, [r2, #48]	; 0x30
 80019fa:	f423 3340 	bic.w	r3, r3, #196608	; 0x30000
 80019fe:	430b      	orrs	r3, r1
 8001a00:	6313      	str	r3, [r2, #48]	; 0x30
 8001a02:	0745      	lsls	r5, r0, #29
 8001a04:	d506      	bpl.n	8001a14 <HAL_RCCEx_PeriphCLKConfig+0x8c>
 8001a06:	4a60      	ldr	r2, [pc, #384]	; (8001b88 <HAL_RCCEx_PeriphCLKConfig+0x200>)
 8001a08:	6921      	ldr	r1, [r4, #16]
 8001a0a:	6b13      	ldr	r3, [r2, #48]	; 0x30
 8001a0c:	f423 2340 	bic.w	r3, r3, #786432	; 0xc0000
 8001a10:	430b      	orrs	r3, r1
 8001a12:	6313      	str	r3, [r2, #48]	; 0x30
 8001a14:	0681      	lsls	r1, r0, #26
 8001a16:	d506      	bpl.n	8001a26 <HAL_RCCEx_PeriphCLKConfig+0x9e>
 8001a18:	4a5b      	ldr	r2, [pc, #364]	; (8001b88 <HAL_RCCEx_PeriphCLKConfig+0x200>)
 8001a1a:	69e1      	ldr	r1, [r4, #28]
 8001a1c:	6b13      	ldr	r3, [r2, #48]	; 0x30
 8001a1e:	f023 0310 	bic.w	r3, r3, #16
 8001a22:	430b      	orrs	r3, r1
 8001a24:	6313      	str	r3, [r2, #48]	; 0x30
 8001a26:	0382      	lsls	r2, r0, #14
 8001a28:	d506      	bpl.n	8001a38 <HAL_RCCEx_PeriphCLKConfig+0xb0>
 8001a2a:	4a57      	ldr	r2, [pc, #348]	; (8001b88 <HAL_RCCEx_PeriphCLKConfig+0x200>)
 8001a2c:	6ba1      	ldr	r1, [r4, #56]	; 0x38
 8001a2e:	6853      	ldr	r3, [r2, #4]
 8001a30:	f423 0380 	bic.w	r3, r3, #4194304	; 0x400000
 8001a34:	430b      	orrs	r3, r1
 8001a36:	6053      	str	r3, [r2, #4]
 8001a38:	0643      	lsls	r3, r0, #25
 8001a3a:	d506      	bpl.n	8001a4a <HAL_RCCEx_PeriphCLKConfig+0xc2>
 8001a3c:	4a52      	ldr	r2, [pc, #328]	; (8001b88 <HAL_RCCEx_PeriphCLKConfig+0x200>)
 8001a3e:	6a21      	ldr	r1, [r4, #32]
 8001a40:	6b13      	ldr	r3, [r2, #48]	; 0x30
 8001a42:	f023 0320 	bic.w	r3, r3, #32
 8001a46:	430b      	orrs	r3, r1
 8001a48:	6313      	str	r3, [r2, #48]	; 0x30
 8001a4a:	0707      	lsls	r7, r0, #28
 8001a4c:	d506      	bpl.n	8001a5c <HAL_RCCEx_PeriphCLKConfig+0xd4>
 8001a4e:	4a4e      	ldr	r2, [pc, #312]	; (8001b88 <HAL_RCCEx_PeriphCLKConfig+0x200>)
 8001a50:	6961      	ldr	r1, [r4, #20]
 8001a52:	6b13      	ldr	r3, [r2, #48]	; 0x30
 8001a54:	f423 1340 	bic.w	r3, r3, #3145728	; 0x300000
 8001a58:	430b      	orrs	r3, r1
 8001a5a:	6313      	str	r3, [r2, #48]	; 0x30
 8001a5c:	06c6      	lsls	r6, r0, #27
 8001a5e:	d506      	bpl.n	8001a6e <HAL_RCCEx_PeriphCLKConfig+0xe6>
 8001a60:	4a49      	ldr	r2, [pc, #292]	; (8001b88 <HAL_RCCEx_PeriphCLKConfig+0x200>)
 8001a62:	69a1      	ldr	r1, [r4, #24]
 8001a64:	6b13      	ldr	r3, [r2, #48]	; 0x30
 8001a66:	f423 0340 	bic.w	r3, r3, #12582912	; 0xc00000
 8001a6a:	430b      	orrs	r3, r1
 8001a6c:	6313      	str	r3, [r2, #48]	; 0x30
 8001a6e:	0585      	lsls	r5, r0, #22
 8001a70:	d506      	bpl.n	8001a80 <HAL_RCCEx_PeriphCLKConfig+0xf8>
 8001a72:	4a45      	ldr	r2, [pc, #276]	; (8001b88 <HAL_RCCEx_PeriphCLKConfig+0x200>)
 8001a74:	6ae1      	ldr	r1, [r4, #44]	; 0x2c
 8001a76:	6853      	ldr	r3, [r2, #4]
 8001a78:	f423 0300 	bic.w	r3, r3, #8388608	; 0x800000
 8001a7c:	430b      	orrs	r3, r1
 8001a7e:	6053      	str	r3, [r2, #4]
 8001a80:	0601      	lsls	r1, r0, #24
 8001a82:	d506      	bpl.n	8001a92 <HAL_RCCEx_PeriphCLKConfig+0x10a>
 8001a84:	4a40      	ldr	r2, [pc, #256]	; (8001b88 <HAL_RCCEx_PeriphCLKConfig+0x200>)
 8001a86:	6a61      	ldr	r1, [r4, #36]	; 0x24
 8001a88:	6ad3      	ldr	r3, [r2, #44]	; 0x2c
 8001a8a:	f423 73f8 	bic.w	r3, r3, #496	; 0x1f0
 8001a8e:	430b      	orrs	r3, r1
 8001a90:	62d3      	str	r3, [r2, #44]	; 0x2c
 8001a92:	05c2      	lsls	r2, r0, #23
 8001a94:	d506      	bpl.n	8001aa4 <HAL_RCCEx_PeriphCLKConfig+0x11c>
 8001a96:	4a3c      	ldr	r2, [pc, #240]	; (8001b88 <HAL_RCCEx_PeriphCLKConfig+0x200>)
 8001a98:	6aa1      	ldr	r1, [r4, #40]	; 0x28
 8001a9a:	6ad3      	ldr	r3, [r2, #44]	; 0x2c
 8001a9c:	f423 5378 	bic.w	r3, r3, #15872	; 0x3e00
 8001aa0:	430b      	orrs	r3, r1
 8001aa2:	62d3      	str	r3, [r2, #44]	; 0x2c
 8001aa4:	04c3      	lsls	r3, r0, #19
 8001aa6:	d506      	bpl.n	8001ab6 <HAL_RCCEx_PeriphCLKConfig+0x12e>
 8001aa8:	4a37      	ldr	r2, [pc, #220]	; (8001b88 <HAL_RCCEx_PeriphCLKConfig+0x200>)
 8001aaa:	6b21      	ldr	r1, [r4, #48]	; 0x30
 8001aac:	6b13      	ldr	r3, [r2, #48]	; 0x30
 8001aae:	f423 7380 	bic.w	r3, r3, #256	; 0x100
 8001ab2:	430b      	orrs	r3, r1
 8001ab4:	6313      	str	r3, [r2, #48]	; 0x30
 8001ab6:	f410 5000 	ands.w	r0, r0, #8192	; 0x2000
 8001aba:	d01c      	beq.n	8001af6 <HAL_RCCEx_PeriphCLKConfig+0x16e>
 8001abc:	4a32      	ldr	r2, [pc, #200]	; (8001b88 <HAL_RCCEx_PeriphCLKConfig+0x200>)
 8001abe:	6b61      	ldr	r1, [r4, #52]	; 0x34
 8001ac0:	6b13      	ldr	r3, [r2, #48]	; 0x30
 8001ac2:	f423 7300 	bic.w	r3, r3, #512	; 0x200
 8001ac6:	430b      	orrs	r3, r1
 8001ac8:	6313      	str	r3, [r2, #48]	; 0x30
 8001aca:	2000      	movs	r0, #0
 8001acc:	e013      	b.n	8001af6 <HAL_RCCEx_PeriphCLKConfig+0x16e>
 8001ace:	2600      	movs	r6, #0
 8001ad0:	e76f      	b.n	80019b2 <HAL_RCCEx_PeriphCLKConfig+0x2a>
 8001ad2:	683b      	ldr	r3, [r7, #0]
 8001ad4:	f443 7380 	orr.w	r3, r3, #256	; 0x100
 8001ad8:	603b      	str	r3, [r7, #0]
 8001ada:	f7ff f901 	bl	8000ce0 <HAL_GetTick>
 8001ade:	4680      	mov	r8, r0
 8001ae0:	683b      	ldr	r3, [r7, #0]
 8001ae2:	05da      	lsls	r2, r3, #23
 8001ae4:	f53f af6a 	bmi.w	80019bc <HAL_RCCEx_PeriphCLKConfig+0x34>
 8001ae8:	f7ff f8fa 	bl	8000ce0 <HAL_GetTick>
 8001aec:	eba0 0008 	sub.w	r0, r0, r8
 8001af0:	2864      	cmp	r0, #100	; 0x64
 8001af2:	d9f5      	bls.n	8001ae0 <HAL_RCCEx_PeriphCLKConfig+0x158>
 8001af4:	2003      	movs	r0, #3
 8001af6:	b002      	add	sp, #8
 8001af8:	e8bd 87f0 	ldmia.w	sp!, {r4, r5, r6, r7, r8, r9, sl, pc}
 8001afc:	6862      	ldr	r2, [r4, #4]
 8001afe:	f402 7240 	and.w	r2, r2, #768	; 0x300
 8001b02:	429a      	cmp	r2, r3
 8001b04:	f43f af5f 	beq.w	80019c6 <HAL_RCCEx_PeriphCLKConfig+0x3e>
 8001b08:	6a29      	ldr	r1, [r5, #32]
 8001b0a:	f44f 3380 	mov.w	r3, #65536	; 0x10000
 8001b0e:	f421 7040 	bic.w	r0, r1, #768	; 0x300
 8001b12:	fa93 f2a3 	rbit	r2, r3
 8001b16:	f8df c078 	ldr.w	ip, [pc, #120]	; 8001b90 <HAL_RCCEx_PeriphCLKConfig+0x208>
 8001b1a:	fab2 f282 	clz	r2, r2
 8001b1e:	4462      	add	r2, ip
 8001b20:	0092      	lsls	r2, r2, #2
 8001b22:	2701      	movs	r7, #1
 8001b24:	6017      	str	r7, [r2, #0]
 8001b26:	fa93 f3a3 	rbit	r3, r3
 8001b2a:	fab3 f383 	clz	r3, r3
 8001b2e:	4463      	add	r3, ip
 8001b30:	009b      	lsls	r3, r3, #2
 8001b32:	2200      	movs	r2, #0
 8001b34:	601a      	str	r2, [r3, #0]
 8001b36:	07cb      	lsls	r3, r1, #31
 8001b38:	6228      	str	r0, [r5, #32]
 8001b3a:	f57f af44 	bpl.w	80019c6 <HAL_RCCEx_PeriphCLKConfig+0x3e>
 8001b3e:	f7ff f8cf 	bl	8000ce0 <HAL_GetTick>
 8001b42:	f04f 0802 	mov.w	r8, #2
 8001b46:	4682      	mov	sl, r0
 8001b48:	46c1      	mov	r9, r8
 8001b4a:	fa98 f3a8 	rbit	r3, r8
 8001b4e:	fa98 f3a8 	rbit	r3, r8
 8001b52:	b1a3      	cbz	r3, 8001b7e <HAL_RCCEx_PeriphCLKConfig+0x1f6>
 8001b54:	6a2a      	ldr	r2, [r5, #32]
 8001b56:	fa99 f3a9 	rbit	r3, r9
 8001b5a:	fab3 f383 	clz	r3, r3
 8001b5e:	f003 031f 	and.w	r3, r3, #31
 8001b62:	fa07 f303 	lsl.w	r3, r7, r3
 8001b66:	4213      	tst	r3, r2
 8001b68:	f47f af2d 	bne.w	80019c6 <HAL_RCCEx_PeriphCLKConfig+0x3e>
 8001b6c:	f7ff f8b8 	bl	8000ce0 <HAL_GetTick>
 8001b70:	f241 3388 	movw	r3, #5000	; 0x1388
 8001b74:	eba0 000a 	sub.w	r0, r0, sl
 8001b78:	4298      	cmp	r0, r3
 8001b7a:	d9e6      	bls.n	8001b4a <HAL_RCCEx_PeriphCLKConfig+0x1c2>
 8001b7c:	e7ba      	b.n	8001af4 <HAL_RCCEx_PeriphCLKConfig+0x16c>
 8001b7e:	fa98 f3a8 	rbit	r3, r8
 8001b82:	6a6a      	ldr	r2, [r5, #36]	; 0x24
 8001b84:	e7e7      	b.n	8001b56 <HAL_RCCEx_PeriphCLKConfig+0x1ce>
 8001b86:	bf00      	nop
 8001b88:	40021000 	.word	0x40021000
 8001b8c:	40007000 	.word	0x40007000
 8001b90:	10908100 	.word	0x10908100

08001b94 <HAL_UART_DeInit>:
 8001b94:	b538      	push	{r3, r4, r5, lr}
 8001b96:	4605      	mov	r5, r0
 8001b98:	b198      	cbz	r0, 8001bc2 <HAL_UART_DeInit+0x2e>
 8001b9a:	2324      	movs	r3, #36	; 0x24
 8001b9c:	6743      	str	r3, [r0, #116]	; 0x74
 8001b9e:	6803      	ldr	r3, [r0, #0]
 8001ba0:	681a      	ldr	r2, [r3, #0]
 8001ba2:	2400      	movs	r4, #0
 8001ba4:	f022 0201 	bic.w	r2, r2, #1
 8001ba8:	601a      	str	r2, [r3, #0]
 8001baa:	601c      	str	r4, [r3, #0]
 8001bac:	605c      	str	r4, [r3, #4]
 8001bae:	609c      	str	r4, [r3, #8]
 8001bb0:	f7fe fe46 	bl	8000840 <HAL_UART_MspDeInit>
 8001bb4:	67ec      	str	r4, [r5, #124]	; 0x7c
 8001bb6:	f885 4070 	strb.w	r4, [r5, #112]	; 0x70
 8001bba:	676c      	str	r4, [r5, #116]	; 0x74
 8001bbc:	4620      	mov	r0, r4
 8001bbe:	67ac      	str	r4, [r5, #120]	; 0x78
 8001bc0:	bd38      	pop	{r3, r4, r5, pc}
 8001bc2:	2001      	movs	r0, #1
 8001bc4:	e7fc      	b.n	8001bc0 <HAL_UART_DeInit+0x2c>
	...

08001bc8 <UART_SetConfig>:
 8001bc8:	b538      	push	{r3, r4, r5, lr}
 8001bca:	4604      	mov	r4, r0
 8001bcc:	6803      	ldr	r3, [r0, #0]
 8001bce:	6925      	ldr	r5, [r4, #16]
 8001bd0:	68a1      	ldr	r1, [r4, #8]
 8001bd2:	69c2      	ldr	r2, [r0, #28]
 8001bd4:	6818      	ldr	r0, [r3, #0]
 8001bd6:	4329      	orrs	r1, r5
 8001bd8:	6965      	ldr	r5, [r4, #20]
 8001bda:	f420 4016 	bic.w	r0, r0, #38400	; 0x9600
 8001bde:	4329      	orrs	r1, r5
 8001be0:	f020 000c 	bic.w	r0, r0, #12
 8001be4:	4311      	orrs	r1, r2
 8001be6:	4301      	orrs	r1, r0
 8001be8:	6019      	str	r1, [r3, #0]
 8001bea:	6859      	ldr	r1, [r3, #4]
 8001bec:	68e0      	ldr	r0, [r4, #12]
 8001bee:	6a25      	ldr	r5, [r4, #32]
 8001bf0:	f421 5140 	bic.w	r1, r1, #12288	; 0x3000
 8001bf4:	4301      	orrs	r1, r0
 8001bf6:	6059      	str	r1, [r3, #4]
 8001bf8:	6898      	ldr	r0, [r3, #8]
 8001bfa:	69a1      	ldr	r1, [r4, #24]
 8001bfc:	f420 6030 	bic.w	r0, r0, #2816	; 0xb00
 8001c00:	4329      	orrs	r1, r5
 8001c02:	4301      	orrs	r1, r0
 8001c04:	6099      	str	r1, [r3, #8]
 8001c06:	4970      	ldr	r1, [pc, #448]	; (8001dc8 <UART_SetConfig+0x200>)
 8001c08:	428b      	cmp	r3, r1
 8001c0a:	d112      	bne.n	8001c32 <UART_SetConfig+0x6a>
 8001c0c:	4b6f      	ldr	r3, [pc, #444]	; (8001dcc <UART_SetConfig+0x204>)
 8001c0e:	4970      	ldr	r1, [pc, #448]	; (8001dd0 <UART_SetConfig+0x208>)
 8001c10:	6b1b      	ldr	r3, [r3, #48]	; 0x30
 8001c12:	f003 0303 	and.w	r3, r3, #3
 8001c16:	5ccb      	ldrb	r3, [r1, r3]
 8001c18:	f5b2 4f00 	cmp.w	r2, #32768	; 0x8000
 8001c1c:	f040 8089 	bne.w	8001d32 <UART_SetConfig+0x16a>
 8001c20:	2b08      	cmp	r3, #8
 8001c22:	d87b      	bhi.n	8001d1c <UART_SetConfig+0x154>
 8001c24:	e8df f003 	tbb	[pc, r3]
 8001c28:	7a247762 	.word	0x7a247762
 8001c2c:	7a7a7ac5 	.word	0x7a7a7ac5
 8001c30:	cb          	.byte	0xcb
 8001c31:	00          	.byte	0x00
 8001c32:	4968      	ldr	r1, [pc, #416]	; (8001dd4 <UART_SetConfig+0x20c>)
 8001c34:	428b      	cmp	r3, r1
 8001c36:	d124      	bne.n	8001c82 <UART_SetConfig+0xba>
 8001c38:	4b64      	ldr	r3, [pc, #400]	; (8001dcc <UART_SetConfig+0x204>)
 8001c3a:	6b1b      	ldr	r3, [r3, #48]	; 0x30
 8001c3c:	f403 3340 	and.w	r3, r3, #196608	; 0x30000
 8001c40:	f5b3 3f80 	cmp.w	r3, #65536	; 0x10000
 8001c44:	f000 80b2 	beq.w	8001dac <UART_SetConfig+0x1e4>
 8001c48:	d807      	bhi.n	8001c5a <UART_SetConfig+0x92>
 8001c4a:	2b00      	cmp	r3, #0
 8001c4c:	d0e4      	beq.n	8001c18 <UART_SetConfig+0x50>
 8001c4e:	f5b2 4f00 	cmp.w	r2, #32768	; 0x8000
 8001c52:	d063      	beq.n	8001d1c <UART_SetConfig+0x154>
 8001c54:	2001      	movs	r0, #1
 8001c56:	2300      	movs	r3, #0
 8001c58:	e08b      	b.n	8001d72 <UART_SetConfig+0x1aa>
 8001c5a:	f5b3 3f00 	cmp.w	r3, #131072	; 0x20000
 8001c5e:	f000 80ab 	beq.w	8001db8 <UART_SetConfig+0x1f0>
 8001c62:	f5b3 3f40 	cmp.w	r3, #196608	; 0x30000
 8001c66:	d1f2      	bne.n	8001c4e <UART_SetConfig+0x86>
 8001c68:	f5b2 4f00 	cmp.w	r2, #32768	; 0x8000
 8001c6c:	f040 808d 	bne.w	8001d8a <UART_SetConfig+0x1c2>
 8001c70:	6860      	ldr	r0, [r4, #4]
 8001c72:	0843      	lsrs	r3, r0, #1
 8001c74:	f503 0374 	add.w	r3, r3, #15990784	; 0xf40000
 8001c78:	f503 5310 	add.w	r3, r3, #9216	; 0x2400
 8001c7c:	fbb3 f3f0 	udiv	r3, r3, r0
 8001c80:	e03c      	b.n	8001cfc <UART_SetConfig+0x134>
 8001c82:	4955      	ldr	r1, [pc, #340]	; (8001dd8 <UART_SetConfig+0x210>)
 8001c84:	428b      	cmp	r3, r1
 8001c86:	d10f      	bne.n	8001ca8 <UART_SetConfig+0xe0>
 8001c88:	4b50      	ldr	r3, [pc, #320]	; (8001dcc <UART_SetConfig+0x204>)
 8001c8a:	6b1b      	ldr	r3, [r3, #48]	; 0x30
 8001c8c:	f403 2340 	and.w	r3, r3, #786432	; 0xc0000
 8001c90:	f5b3 2f80 	cmp.w	r3, #262144	; 0x40000
 8001c94:	f000 808a 	beq.w	8001dac <UART_SetConfig+0x1e4>
 8001c98:	d9d7      	bls.n	8001c4a <UART_SetConfig+0x82>
 8001c9a:	f5b3 2f00 	cmp.w	r3, #524288	; 0x80000
 8001c9e:	f000 808b 	beq.w	8001db8 <UART_SetConfig+0x1f0>
 8001ca2:	f5b3 2f40 	cmp.w	r3, #786432	; 0xc0000
 8001ca6:	e7de      	b.n	8001c66 <UART_SetConfig+0x9e>
 8001ca8:	494c      	ldr	r1, [pc, #304]	; (8001ddc <UART_SetConfig+0x214>)
 8001caa:	428b      	cmp	r3, r1
 8001cac:	d10d      	bne.n	8001cca <UART_SetConfig+0x102>
 8001cae:	4b47      	ldr	r3, [pc, #284]	; (8001dcc <UART_SetConfig+0x204>)
 8001cb0:	6b1b      	ldr	r3, [r3, #48]	; 0x30
 8001cb2:	f403 1340 	and.w	r3, r3, #3145728	; 0x300000
 8001cb6:	f5b3 1f80 	cmp.w	r3, #1048576	; 0x100000
 8001cba:	d077      	beq.n	8001dac <UART_SetConfig+0x1e4>
 8001cbc:	d9c5      	bls.n	8001c4a <UART_SetConfig+0x82>
 8001cbe:	f5b3 1f00 	cmp.w	r3, #2097152	; 0x200000
 8001cc2:	d079      	beq.n	8001db8 <UART_SetConfig+0x1f0>
 8001cc4:	f5b3 1f40 	cmp.w	r3, #3145728	; 0x300000
 8001cc8:	e7cd      	b.n	8001c66 <UART_SetConfig+0x9e>
 8001cca:	4945      	ldr	r1, [pc, #276]	; (8001de0 <UART_SetConfig+0x218>)
 8001ccc:	428b      	cmp	r3, r1
 8001cce:	d1be      	bne.n	8001c4e <UART_SetConfig+0x86>
 8001cd0:	4b3e      	ldr	r3, [pc, #248]	; (8001dcc <UART_SetConfig+0x204>)
 8001cd2:	6b1b      	ldr	r3, [r3, #48]	; 0x30
 8001cd4:	f403 0340 	and.w	r3, r3, #12582912	; 0xc00000
 8001cd8:	f5b3 0f80 	cmp.w	r3, #4194304	; 0x400000
 8001cdc:	d066      	beq.n	8001dac <UART_SetConfig+0x1e4>
 8001cde:	d9b4      	bls.n	8001c4a <UART_SetConfig+0x82>
 8001ce0:	f5b3 0f00 	cmp.w	r3, #8388608	; 0x800000
 8001ce4:	d068      	beq.n	8001db8 <UART_SetConfig+0x1f0>
 8001ce6:	f5b3 0f40 	cmp.w	r3, #12582912	; 0xc00000
 8001cea:	e7bc      	b.n	8001c66 <UART_SetConfig+0x9e>
 8001cec:	f7ff fe1c 	bl	8001928 <HAL_RCC_GetPCLK1Freq>
 8001cf0:	6861      	ldr	r1, [r4, #4]
 8001cf2:	084a      	lsrs	r2, r1, #1
 8001cf4:	eb02 0340 	add.w	r3, r2, r0, lsl #1
 8001cf8:	fbb3 f3f1 	udiv	r3, r3, r1
 8001cfc:	b29b      	uxth	r3, r3
 8001cfe:	2000      	movs	r0, #0
 8001d00:	f1a3 0110 	sub.w	r1, r3, #16
 8001d04:	f64f 72ef 	movw	r2, #65519	; 0xffef
 8001d08:	4291      	cmp	r1, r2
 8001d0a:	d90a      	bls.n	8001d22 <UART_SetConfig+0x15a>
 8001d0c:	2001      	movs	r0, #1
 8001d0e:	2300      	movs	r3, #0
 8001d10:	e9c4 3318 	strd	r3, r3, [r4, #96]	; 0x60
 8001d14:	bd38      	pop	{r3, r4, r5, pc}
 8001d16:	f7ff fe1f 	bl	8001958 <HAL_RCC_GetPCLK2Freq>
 8001d1a:	e7e9      	b.n	8001cf0 <UART_SetConfig+0x128>
 8001d1c:	2001      	movs	r0, #1
 8001d1e:	2300      	movs	r3, #0
 8001d20:	e7ee      	b.n	8001d00 <UART_SetConfig+0x138>
 8001d22:	f023 020f 	bic.w	r2, r3, #15
 8001d26:	6821      	ldr	r1, [r4, #0]
 8001d28:	f3c3 0342 	ubfx	r3, r3, #1, #3
 8001d2c:	4313      	orrs	r3, r2
 8001d2e:	60cb      	str	r3, [r1, #12]
 8001d30:	e7ed      	b.n	8001d0e <UART_SetConfig+0x146>
 8001d32:	2b08      	cmp	r3, #8
 8001d34:	d88e      	bhi.n	8001c54 <UART_SetConfig+0x8c>
 8001d36:	a201      	add	r2, pc, #4	; (adr r2, 8001d3c <UART_SetConfig+0x174>)
 8001d38:	f852 f023 	ldr.w	pc, [r2, r3, lsl #2]
 8001d3c:	08001d61 	.word	0x08001d61
 8001d40:	08001d85 	.word	0x08001d85
 8001d44:	08001d8b 	.word	0x08001d8b
 8001d48:	08001c55 	.word	0x08001c55
 8001d4c:	08001d9d 	.word	0x08001d9d
 8001d50:	08001c55 	.word	0x08001c55
 8001d54:	08001c55 	.word	0x08001c55
 8001d58:	08001c55 	.word	0x08001c55
 8001d5c:	08001da3 	.word	0x08001da3
 8001d60:	f7ff fde2 	bl	8001928 <HAL_RCC_GetPCLK1Freq>
 8001d64:	6862      	ldr	r2, [r4, #4]
 8001d66:	eb00 0352 	add.w	r3, r0, r2, lsr #1
 8001d6a:	fbb3 f3f2 	udiv	r3, r3, r2
 8001d6e:	b29b      	uxth	r3, r3
 8001d70:	2000      	movs	r0, #0
 8001d72:	f1a3 0110 	sub.w	r1, r3, #16
 8001d76:	f64f 72ef 	movw	r2, #65519	; 0xffef
 8001d7a:	4291      	cmp	r1, r2
 8001d7c:	d8c6      	bhi.n	8001d0c <UART_SetConfig+0x144>
 8001d7e:	6822      	ldr	r2, [r4, #0]
 8001d80:	60d3      	str	r3, [r2, #12]
 8001d82:	e7c4      	b.n	8001d0e <UART_SetConfig+0x146>
 8001d84:	f7ff fde8 	bl	8001958 <HAL_RCC_GetPCLK2Freq>
 8001d88:	e7ec      	b.n	8001d64 <UART_SetConfig+0x19c>
 8001d8a:	6860      	ldr	r0, [r4, #4]
 8001d8c:	0843      	lsrs	r3, r0, #1
 8001d8e:	f503 03f4 	add.w	r3, r3, #7995392	; 0x7a0000
 8001d92:	f503 5390 	add.w	r3, r3, #4608	; 0x1200
 8001d96:	fbb3 f3f0 	udiv	r3, r3, r0
 8001d9a:	e7e8      	b.n	8001d6e <UART_SetConfig+0x1a6>
 8001d9c:	f7ff fce6 	bl	800176c <HAL_RCC_GetSysClockFreq>
 8001da0:	e7e0      	b.n	8001d64 <UART_SetConfig+0x19c>
 8001da2:	6860      	ldr	r0, [r4, #4]
 8001da4:	0843      	lsrs	r3, r0, #1
 8001da6:	f503 4300 	add.w	r3, r3, #32768	; 0x8000
 8001daa:	e7f4      	b.n	8001d96 <UART_SetConfig+0x1ce>
 8001dac:	f5b2 4f00 	cmp.w	r2, #32768	; 0x8000
 8001db0:	d1f4      	bne.n	8001d9c <UART_SetConfig+0x1d4>
 8001db2:	f7ff fcdb 	bl	800176c <HAL_RCC_GetSysClockFreq>
 8001db6:	e79b      	b.n	8001cf0 <UART_SetConfig+0x128>
 8001db8:	f5b2 4f00 	cmp.w	r2, #32768	; 0x8000
 8001dbc:	d1f1      	bne.n	8001da2 <UART_SetConfig+0x1da>
 8001dbe:	6860      	ldr	r0, [r4, #4]
 8001dc0:	0843      	lsrs	r3, r0, #1
 8001dc2:	f503 3380 	add.w	r3, r3, #65536	; 0x10000
 8001dc6:	e759      	b.n	8001c7c <UART_SetConfig+0xb4>
 8001dc8:	40013800 	.word	0x40013800
 8001dcc:	40021000 	.word	0x40021000
 8001dd0:	08003082 	.word	0x08003082
 8001dd4:	40004400 	.word	0x40004400
 8001dd8:	40004800 	.word	0x40004800
 8001ddc:	40004c00 	.word	0x40004c00
 8001de0:	40005000 	.word	0x40005000

08001de4 <UART_AdvFeatureConfig>:
 8001de4:	6a43      	ldr	r3, [r0, #36]	; 0x24
 8001de6:	07da      	lsls	r2, r3, #31
 8001de8:	b510      	push	{r4, lr}
 8001dea:	d506      	bpl.n	8001dfa <UART_AdvFeatureConfig+0x16>
 8001dec:	6801      	ldr	r1, [r0, #0]
 8001dee:	6a84      	ldr	r4, [r0, #40]	; 0x28
 8001df0:	684a      	ldr	r2, [r1, #4]
 8001df2:	f422 3200 	bic.w	r2, r2, #131072	; 0x20000
 8001df6:	4322      	orrs	r2, r4
 8001df8:	604a      	str	r2, [r1, #4]
 8001dfa:	079c      	lsls	r4, r3, #30
 8001dfc:	d506      	bpl.n	8001e0c <UART_AdvFeatureConfig+0x28>
 8001dfe:	6801      	ldr	r1, [r0, #0]
 8001e00:	6ac4      	ldr	r4, [r0, #44]	; 0x2c
 8001e02:	684a      	ldr	r2, [r1, #4]
 8001e04:	f422 3280 	bic.w	r2, r2, #65536	; 0x10000
 8001e08:	4322      	orrs	r2, r4
 8001e0a:	604a      	str	r2, [r1, #4]
 8001e0c:	0759      	lsls	r1, r3, #29
 8001e0e:	d506      	bpl.n	8001e1e <UART_AdvFeatureConfig+0x3a>
 8001e10:	6801      	ldr	r1, [r0, #0]
 8001e12:	6b04      	ldr	r4, [r0, #48]	; 0x30
 8001e14:	684a      	ldr	r2, [r1, #4]
 8001e16:	f422 2280 	bic.w	r2, r2, #262144	; 0x40000
 8001e1a:	4322      	orrs	r2, r4
 8001e1c:	604a      	str	r2, [r1, #4]
 8001e1e:	071a      	lsls	r2, r3, #28
 8001e20:	d506      	bpl.n	8001e30 <UART_AdvFeatureConfig+0x4c>
 8001e22:	6801      	ldr	r1, [r0, #0]
 8001e24:	6b44      	ldr	r4, [r0, #52]	; 0x34
 8001e26:	684a      	ldr	r2, [r1, #4]
 8001e28:	f422 4200 	bic.w	r2, r2, #32768	; 0x8000
 8001e2c:	4322      	orrs	r2, r4
 8001e2e:	604a      	str	r2, [r1, #4]
 8001e30:	06dc      	lsls	r4, r3, #27
 8001e32:	d506      	bpl.n	8001e42 <UART_AdvFeatureConfig+0x5e>
 8001e34:	6801      	ldr	r1, [r0, #0]
 8001e36:	6b84      	ldr	r4, [r0, #56]	; 0x38
 8001e38:	688a      	ldr	r2, [r1, #8]
 8001e3a:	f422 5280 	bic.w	r2, r2, #4096	; 0x1000
 8001e3e:	4322      	orrs	r2, r4
 8001e40:	608a      	str	r2, [r1, #8]
 8001e42:	0699      	lsls	r1, r3, #26
 8001e44:	d506      	bpl.n	8001e54 <UART_AdvFeatureConfig+0x70>
 8001e46:	6801      	ldr	r1, [r0, #0]
 8001e48:	6bc4      	ldr	r4, [r0, #60]	; 0x3c
 8001e4a:	688a      	ldr	r2, [r1, #8]
 8001e4c:	f422 5200 	bic.w	r2, r2, #8192	; 0x2000
 8001e50:	4322      	orrs	r2, r4
 8001e52:	608a      	str	r2, [r1, #8]
 8001e54:	065a      	lsls	r2, r3, #25
 8001e56:	d50f      	bpl.n	8001e78 <UART_AdvFeatureConfig+0x94>
 8001e58:	6801      	ldr	r1, [r0, #0]
 8001e5a:	6c04      	ldr	r4, [r0, #64]	; 0x40
 8001e5c:	684a      	ldr	r2, [r1, #4]
 8001e5e:	f422 1280 	bic.w	r2, r2, #1048576	; 0x100000
 8001e62:	4322      	orrs	r2, r4
 8001e64:	f5b4 1f80 	cmp.w	r4, #1048576	; 0x100000
 8001e68:	604a      	str	r2, [r1, #4]
 8001e6a:	d105      	bne.n	8001e78 <UART_AdvFeatureConfig+0x94>
 8001e6c:	684a      	ldr	r2, [r1, #4]
 8001e6e:	6c44      	ldr	r4, [r0, #68]	; 0x44
 8001e70:	f422 02c0 	bic.w	r2, r2, #6291456	; 0x600000
 8001e74:	4322      	orrs	r2, r4
 8001e76:	604a      	str	r2, [r1, #4]
 8001e78:	061b      	lsls	r3, r3, #24
 8001e7a:	d506      	bpl.n	8001e8a <UART_AdvFeatureConfig+0xa6>
 8001e7c:	6802      	ldr	r2, [r0, #0]
 8001e7e:	6c81      	ldr	r1, [r0, #72]	; 0x48
 8001e80:	6853      	ldr	r3, [r2, #4]
 8001e82:	f423 2300 	bic.w	r3, r3, #524288	; 0x80000
 8001e86:	430b      	orrs	r3, r1
 8001e88:	6053      	str	r3, [r2, #4]
 8001e8a:	bd10      	pop	{r4, pc}

08001e8c <UART_WaitOnFlagUntilTimeout>:
 8001e8c:	e92d 41f0 	stmdb	sp!, {r4, r5, r6, r7, r8, lr}
 8001e90:	9d06      	ldr	r5, [sp, #24]
 8001e92:	4604      	mov	r4, r0
 8001e94:	460f      	mov	r7, r1
 8001e96:	4616      	mov	r6, r2
 8001e98:	4698      	mov	r8, r3
 8001e9a:	6821      	ldr	r1, [r4, #0]
 8001e9c:	69ca      	ldr	r2, [r1, #28]
 8001e9e:	ea37 0302 	bics.w	r3, r7, r2
 8001ea2:	bf0c      	ite	eq
 8001ea4:	2201      	moveq	r2, #1
 8001ea6:	2200      	movne	r2, #0
 8001ea8:	42b2      	cmp	r2, r6
 8001eaa:	d001      	beq.n	8001eb0 <UART_WaitOnFlagUntilTimeout+0x24>
 8001eac:	2000      	movs	r0, #0
 8001eae:	e018      	b.n	8001ee2 <UART_WaitOnFlagUntilTimeout+0x56>
 8001eb0:	1c68      	adds	r0, r5, #1
 8001eb2:	d0f3      	beq.n	8001e9c <UART_WaitOnFlagUntilTimeout+0x10>
 8001eb4:	f7fe ff14 	bl	8000ce0 <HAL_GetTick>
 8001eb8:	eba0 0008 	sub.w	r0, r0, r8
 8001ebc:	42a8      	cmp	r0, r5
 8001ebe:	6820      	ldr	r0, [r4, #0]
 8001ec0:	6803      	ldr	r3, [r0, #0]
 8001ec2:	d800      	bhi.n	8001ec6 <UART_WaitOnFlagUntilTimeout+0x3a>
 8001ec4:	b97d      	cbnz	r5, 8001ee6 <UART_WaitOnFlagUntilTimeout+0x5a>
 8001ec6:	f423 73d0 	bic.w	r3, r3, #416	; 0x1a0
 8001eca:	6003      	str	r3, [r0, #0]
 8001ecc:	6883      	ldr	r3, [r0, #8]
 8001ece:	f023 0301 	bic.w	r3, r3, #1
 8001ed2:	6083      	str	r3, [r0, #8]
 8001ed4:	2320      	movs	r3, #32
 8001ed6:	6763      	str	r3, [r4, #116]	; 0x74
 8001ed8:	67a3      	str	r3, [r4, #120]	; 0x78
 8001eda:	2300      	movs	r3, #0
 8001edc:	f884 3070 	strb.w	r3, [r4, #112]	; 0x70
 8001ee0:	2003      	movs	r0, #3
 8001ee2:	e8bd 81f0 	ldmia.w	sp!, {r4, r5, r6, r7, r8, pc}
 8001ee6:	075a      	lsls	r2, r3, #29
 8001ee8:	d5d7      	bpl.n	8001e9a <UART_WaitOnFlagUntilTimeout+0xe>
 8001eea:	69c3      	ldr	r3, [r0, #28]
 8001eec:	051b      	lsls	r3, r3, #20
 8001eee:	d5d4      	bpl.n	8001e9a <UART_WaitOnFlagUntilTimeout+0xe>
 8001ef0:	f44f 6300 	mov.w	r3, #2048	; 0x800
 8001ef4:	6203      	str	r3, [r0, #32]
 8001ef6:	6803      	ldr	r3, [r0, #0]
 8001ef8:	f423 73d0 	bic.w	r3, r3, #416	; 0x1a0
 8001efc:	6003      	str	r3, [r0, #0]
 8001efe:	6883      	ldr	r3, [r0, #8]
 8001f00:	f023 0301 	bic.w	r3, r3, #1
 8001f04:	6083      	str	r3, [r0, #8]
 8001f06:	2320      	movs	r3, #32
 8001f08:	6763      	str	r3, [r4, #116]	; 0x74
 8001f0a:	67a3      	str	r3, [r4, #120]	; 0x78
 8001f0c:	67e3      	str	r3, [r4, #124]	; 0x7c
 8001f0e:	e7e4      	b.n	8001eda <UART_WaitOnFlagUntilTimeout+0x4e>

08001f10 <HAL_UART_Transmit>:
 8001f10:	e92d 43f7 	stmdb	sp!, {r0, r1, r2, r4, r5, r6, r7, r8, r9, lr}
 8001f14:	4698      	mov	r8, r3
 8001f16:	6f43      	ldr	r3, [r0, #116]	; 0x74
 8001f18:	2b20      	cmp	r3, #32
 8001f1a:	4604      	mov	r4, r0
 8001f1c:	460e      	mov	r6, r1
 8001f1e:	4691      	mov	r9, r2
 8001f20:	d14b      	bne.n	8001fba <HAL_UART_Transmit+0xaa>
 8001f22:	2900      	cmp	r1, #0
 8001f24:	d047      	beq.n	8001fb6 <HAL_UART_Transmit+0xa6>
 8001f26:	2a00      	cmp	r2, #0
 8001f28:	d045      	beq.n	8001fb6 <HAL_UART_Transmit+0xa6>
 8001f2a:	f890 3070 	ldrb.w	r3, [r0, #112]	; 0x70
 8001f2e:	2b01      	cmp	r3, #1
 8001f30:	d043      	beq.n	8001fba <HAL_UART_Transmit+0xaa>
 8001f32:	2301      	movs	r3, #1
 8001f34:	f880 3070 	strb.w	r3, [r0, #112]	; 0x70
 8001f38:	2500      	movs	r5, #0
 8001f3a:	2321      	movs	r3, #33	; 0x21
 8001f3c:	67c5      	str	r5, [r0, #124]	; 0x7c
 8001f3e:	6743      	str	r3, [r0, #116]	; 0x74
 8001f40:	f7fe fece 	bl	8000ce0 <HAL_GetTick>
 8001f44:	68a3      	ldr	r3, [r4, #8]
 8001f46:	f8a4 9050 	strh.w	r9, [r4, #80]	; 0x50
 8001f4a:	f5b3 5f80 	cmp.w	r3, #4096	; 0x1000
 8001f4e:	4607      	mov	r7, r0
 8001f50:	f8a4 9052 	strh.w	r9, [r4, #82]	; 0x52
 8001f54:	d103      	bne.n	8001f5e <HAL_UART_Transmit+0x4e>
 8001f56:	6923      	ldr	r3, [r4, #16]
 8001f58:	b90b      	cbnz	r3, 8001f5e <HAL_UART_Transmit+0x4e>
 8001f5a:	4635      	mov	r5, r6
 8001f5c:	461e      	mov	r6, r3
 8001f5e:	f8b4 2052 	ldrh.w	r2, [r4, #82]	; 0x52
 8001f62:	f8cd 8000 	str.w	r8, [sp]
 8001f66:	b292      	uxth	r2, r2
 8001f68:	463b      	mov	r3, r7
 8001f6a:	b94a      	cbnz	r2, 8001f80 <HAL_UART_Transmit+0x70>
 8001f6c:	2140      	movs	r1, #64	; 0x40
 8001f6e:	4620      	mov	r0, r4
 8001f70:	f7ff ff8c 	bl	8001e8c <UART_WaitOnFlagUntilTimeout>
 8001f74:	b950      	cbnz	r0, 8001f8c <HAL_UART_Transmit+0x7c>
 8001f76:	2320      	movs	r3, #32
 8001f78:	6763      	str	r3, [r4, #116]	; 0x74
 8001f7a:	f884 0070 	strb.w	r0, [r4, #112]	; 0x70
 8001f7e:	e006      	b.n	8001f8e <HAL_UART_Transmit+0x7e>
 8001f80:	2200      	movs	r2, #0
 8001f82:	2180      	movs	r1, #128	; 0x80
 8001f84:	4620      	mov	r0, r4
 8001f86:	f7ff ff81 	bl	8001e8c <UART_WaitOnFlagUntilTimeout>
 8001f8a:	b118      	cbz	r0, 8001f94 <HAL_UART_Transmit+0x84>
 8001f8c:	2003      	movs	r0, #3
 8001f8e:	b003      	add	sp, #12
 8001f90:	e8bd 83f0 	ldmia.w	sp!, {r4, r5, r6, r7, r8, r9, pc}
 8001f94:	6822      	ldr	r2, [r4, #0]
 8001f96:	b95e      	cbnz	r6, 8001fb0 <HAL_UART_Transmit+0xa0>
 8001f98:	f835 3b02 	ldrh.w	r3, [r5], #2
 8001f9c:	f3c3 0308 	ubfx	r3, r3, #0, #9
 8001fa0:	8513      	strh	r3, [r2, #40]	; 0x28
 8001fa2:	f8b4 3052 	ldrh.w	r3, [r4, #82]	; 0x52
 8001fa6:	3b01      	subs	r3, #1
 8001fa8:	b29b      	uxth	r3, r3
 8001faa:	f8a4 3052 	strh.w	r3, [r4, #82]	; 0x52
 8001fae:	e7d6      	b.n	8001f5e <HAL_UART_Transmit+0x4e>
 8001fb0:	f816 3b01 	ldrb.w	r3, [r6], #1
 8001fb4:	e7f4      	b.n	8001fa0 <HAL_UART_Transmit+0x90>
 8001fb6:	2001      	movs	r0, #1
 8001fb8:	e7e9      	b.n	8001f8e <HAL_UART_Transmit+0x7e>
 8001fba:	2002      	movs	r0, #2
 8001fbc:	e7e7      	b.n	8001f8e <HAL_UART_Transmit+0x7e>

08001fbe <HAL_UART_Receive>:
 8001fbe:	e92d 43f7 	stmdb	sp!, {r0, r1, r2, r4, r5, r6, r7, r8, r9, lr}
 8001fc2:	4699      	mov	r9, r3
 8001fc4:	6f83      	ldr	r3, [r0, #120]	; 0x78
 8001fc6:	2b20      	cmp	r3, #32
 8001fc8:	4604      	mov	r4, r0
 8001fca:	460d      	mov	r5, r1
 8001fcc:	4616      	mov	r6, r2
 8001fce:	d15b      	bne.n	8002088 <HAL_UART_Receive+0xca>
 8001fd0:	2900      	cmp	r1, #0
 8001fd2:	d057      	beq.n	8002084 <HAL_UART_Receive+0xc6>
 8001fd4:	2a00      	cmp	r2, #0
 8001fd6:	d055      	beq.n	8002084 <HAL_UART_Receive+0xc6>
 8001fd8:	f890 3070 	ldrb.w	r3, [r0, #112]	; 0x70
 8001fdc:	2b01      	cmp	r3, #1
 8001fde:	d053      	beq.n	8002088 <HAL_UART_Receive+0xca>
 8001fe0:	2301      	movs	r3, #1
 8001fe2:	f880 3070 	strb.w	r3, [r0, #112]	; 0x70
 8001fe6:	2700      	movs	r7, #0
 8001fe8:	2322      	movs	r3, #34	; 0x22
 8001fea:	67c7      	str	r7, [r0, #124]	; 0x7c
 8001fec:	6783      	str	r3, [r0, #120]	; 0x78
 8001fee:	f7fe fe77 	bl	8000ce0 <HAL_GetTick>
 8001ff2:	68a3      	ldr	r3, [r4, #8]
 8001ff4:	f8a4 6058 	strh.w	r6, [r4, #88]	; 0x58
 8001ff8:	f5b3 5f80 	cmp.w	r3, #4096	; 0x1000
 8001ffc:	4680      	mov	r8, r0
 8001ffe:	f8a4 605a 	strh.w	r6, [r4, #90]	; 0x5a
 8002002:	d11b      	bne.n	800203c <HAL_UART_Receive+0x7e>
 8002004:	6922      	ldr	r2, [r4, #16]
 8002006:	b9ba      	cbnz	r2, 8002038 <HAL_UART_Receive+0x7a>
 8002008:	f240 12ff 	movw	r2, #511	; 0x1ff
 800200c:	f8a4 205c 	strh.w	r2, [r4, #92]	; 0x5c
 8002010:	f5b3 5f80 	cmp.w	r3, #4096	; 0x1000
 8002014:	f8b4 705c 	ldrh.w	r7, [r4, #92]	; 0x5c
 8002018:	d119      	bne.n	800204e <HAL_UART_Receive+0x90>
 800201a:	6923      	ldr	r3, [r4, #16]
 800201c:	b9bb      	cbnz	r3, 800204e <HAL_UART_Receive+0x90>
 800201e:	462e      	mov	r6, r5
 8002020:	461d      	mov	r5, r3
 8002022:	f8b4 005a 	ldrh.w	r0, [r4, #90]	; 0x5a
 8002026:	b280      	uxth	r0, r0
 8002028:	b998      	cbnz	r0, 8002052 <HAL_UART_Receive+0x94>
 800202a:	2320      	movs	r3, #32
 800202c:	67a3      	str	r3, [r4, #120]	; 0x78
 800202e:	f884 0070 	strb.w	r0, [r4, #112]	; 0x70
 8002032:	b003      	add	sp, #12
 8002034:	e8bd 83f0 	ldmia.w	sp!, {r4, r5, r6, r7, r8, r9, pc}
 8002038:	22ff      	movs	r2, #255	; 0xff
 800203a:	e7e7      	b.n	800200c <HAL_UART_Receive+0x4e>
 800203c:	b923      	cbnz	r3, 8002048 <HAL_UART_Receive+0x8a>
 800203e:	6922      	ldr	r2, [r4, #16]
 8002040:	2a00      	cmp	r2, #0
 8002042:	d0f9      	beq.n	8002038 <HAL_UART_Receive+0x7a>
 8002044:	227f      	movs	r2, #127	; 0x7f
 8002046:	e7e1      	b.n	800200c <HAL_UART_Receive+0x4e>
 8002048:	f8a4 705c 	strh.w	r7, [r4, #92]	; 0x5c
 800204c:	e7e0      	b.n	8002010 <HAL_UART_Receive+0x52>
 800204e:	2600      	movs	r6, #0
 8002050:	e7e7      	b.n	8002022 <HAL_UART_Receive+0x64>
 8002052:	f8cd 9000 	str.w	r9, [sp]
 8002056:	4643      	mov	r3, r8
 8002058:	2200      	movs	r2, #0
 800205a:	2120      	movs	r1, #32
 800205c:	4620      	mov	r0, r4
 800205e:	f7ff ff15 	bl	8001e8c <UART_WaitOnFlagUntilTimeout>
 8002062:	b998      	cbnz	r0, 800208c <HAL_UART_Receive+0xce>
 8002064:	6823      	ldr	r3, [r4, #0]
 8002066:	8c9b      	ldrh	r3, [r3, #36]	; 0x24
 8002068:	403b      	ands	r3, r7
 800206a:	b945      	cbnz	r5, 800207e <HAL_UART_Receive+0xc0>
 800206c:	f826 3b02 	strh.w	r3, [r6], #2
 8002070:	f8b4 305a 	ldrh.w	r3, [r4, #90]	; 0x5a
 8002074:	3b01      	subs	r3, #1
 8002076:	b29b      	uxth	r3, r3
 8002078:	f8a4 305a 	strh.w	r3, [r4, #90]	; 0x5a
 800207c:	e7d1      	b.n	8002022 <HAL_UART_Receive+0x64>
 800207e:	f805 3b01 	strb.w	r3, [r5], #1
 8002082:	e7f5      	b.n	8002070 <HAL_UART_Receive+0xb2>
 8002084:	2001      	movs	r0, #1
 8002086:	e7d4      	b.n	8002032 <HAL_UART_Receive+0x74>
 8002088:	2002      	movs	r0, #2
 800208a:	e7d2      	b.n	8002032 <HAL_UART_Receive+0x74>
 800208c:	2003      	movs	r0, #3
 800208e:	e7d0      	b.n	8002032 <HAL_UART_Receive+0x74>

08002090 <UART_CheckIdleState>:
 8002090:	b573      	push	{r0, r1, r4, r5, r6, lr}
 8002092:	4604      	mov	r4, r0
 8002094:	2600      	movs	r6, #0
 8002096:	67c6      	str	r6, [r0, #124]	; 0x7c
 8002098:	f7fe fe22 	bl	8000ce0 <HAL_GetTick>
 800209c:	6823      	ldr	r3, [r4, #0]
 800209e:	681b      	ldr	r3, [r3, #0]
 80020a0:	071a      	lsls	r2, r3, #28
 80020a2:	4605      	mov	r5, r0
 80020a4:	d415      	bmi.n	80020d2 <UART_CheckIdleState+0x42>
 80020a6:	6823      	ldr	r3, [r4, #0]
 80020a8:	681b      	ldr	r3, [r3, #0]
 80020aa:	075b      	lsls	r3, r3, #29
 80020ac:	d50a      	bpl.n	80020c4 <UART_CheckIdleState+0x34>
 80020ae:	f06f 437e 	mvn.w	r3, #4261412864	; 0xfe000000
 80020b2:	9300      	str	r3, [sp, #0]
 80020b4:	2200      	movs	r2, #0
 80020b6:	462b      	mov	r3, r5
 80020b8:	f44f 0180 	mov.w	r1, #4194304	; 0x400000
 80020bc:	4620      	mov	r0, r4
 80020be:	f7ff fee5 	bl	8001e8c <UART_WaitOnFlagUntilTimeout>
 80020c2:	b990      	cbnz	r0, 80020ea <UART_CheckIdleState+0x5a>
 80020c4:	2320      	movs	r3, #32
 80020c6:	2000      	movs	r0, #0
 80020c8:	6763      	str	r3, [r4, #116]	; 0x74
 80020ca:	f884 0070 	strb.w	r0, [r4, #112]	; 0x70
 80020ce:	67a3      	str	r3, [r4, #120]	; 0x78
 80020d0:	e00c      	b.n	80020ec <UART_CheckIdleState+0x5c>
 80020d2:	f06f 437e 	mvn.w	r3, #4261412864	; 0xfe000000
 80020d6:	9300      	str	r3, [sp, #0]
 80020d8:	4632      	mov	r2, r6
 80020da:	4603      	mov	r3, r0
 80020dc:	f44f 1100 	mov.w	r1, #2097152	; 0x200000
 80020e0:	4620      	mov	r0, r4
 80020e2:	f7ff fed3 	bl	8001e8c <UART_WaitOnFlagUntilTimeout>
 80020e6:	2800      	cmp	r0, #0
 80020e8:	d0dd      	beq.n	80020a6 <UART_CheckIdleState+0x16>
 80020ea:	2003      	movs	r0, #3
 80020ec:	b002      	add	sp, #8
 80020ee:	bd70      	pop	{r4, r5, r6, pc}

080020f0 <HAL_UART_Init>:
 80020f0:	b510      	push	{r4, lr}
 80020f2:	4604      	mov	r4, r0
 80020f4:	b340      	cbz	r0, 8002148 <HAL_UART_Init+0x58>
 80020f6:	6f43      	ldr	r3, [r0, #116]	; 0x74
 80020f8:	b91b      	cbnz	r3, 8002102 <HAL_UART_Init+0x12>
 80020fa:	f880 3070 	strb.w	r3, [r0, #112]	; 0x70
 80020fe:	f7fe fb6d 	bl	80007dc <HAL_UART_MspInit>
 8002102:	6822      	ldr	r2, [r4, #0]
 8002104:	2324      	movs	r3, #36	; 0x24
 8002106:	6763      	str	r3, [r4, #116]	; 0x74
 8002108:	6813      	ldr	r3, [r2, #0]
 800210a:	f023 0301 	bic.w	r3, r3, #1
 800210e:	6013      	str	r3, [r2, #0]
 8002110:	4620      	mov	r0, r4
 8002112:	f7ff fd59 	bl	8001bc8 <UART_SetConfig>
 8002116:	2801      	cmp	r0, #1
 8002118:	d016      	beq.n	8002148 <HAL_UART_Init+0x58>
 800211a:	6a63      	ldr	r3, [r4, #36]	; 0x24
 800211c:	b113      	cbz	r3, 8002124 <HAL_UART_Init+0x34>
 800211e:	4620      	mov	r0, r4
 8002120:	f7ff fe60 	bl	8001de4 <UART_AdvFeatureConfig>
 8002124:	6823      	ldr	r3, [r4, #0]
 8002126:	685a      	ldr	r2, [r3, #4]
 8002128:	f422 4290 	bic.w	r2, r2, #18432	; 0x4800
 800212c:	605a      	str	r2, [r3, #4]
 800212e:	689a      	ldr	r2, [r3, #8]
 8002130:	f022 022a 	bic.w	r2, r2, #42	; 0x2a
 8002134:	609a      	str	r2, [r3, #8]
 8002136:	681a      	ldr	r2, [r3, #0]
 8002138:	f042 0201 	orr.w	r2, r2, #1
 800213c:	4620      	mov	r0, r4
 800213e:	601a      	str	r2, [r3, #0]
 8002140:	e8bd 4010 	ldmia.w	sp!, {r4, lr}
 8002144:	f7ff bfa4 	b.w	8002090 <UART_CheckIdleState>
 8002148:	2001      	movs	r0, #1
 800214a:	bd10      	pop	{r4, pc}

0800214c <KeyExpansion>:
 800214c:	b5f0      	push	{r4, r5, r6, r7, lr}
 800214e:	f101 0220 	add.w	r2, r1, #32
 8002152:	4603      	mov	r3, r0
 8002154:	780c      	ldrb	r4, [r1, #0]
 8002156:	701c      	strb	r4, [r3, #0]
 8002158:	784c      	ldrb	r4, [r1, #1]
 800215a:	705c      	strb	r4, [r3, #1]
 800215c:	788c      	ldrb	r4, [r1, #2]
 800215e:	709c      	strb	r4, [r3, #2]
 8002160:	78cc      	ldrb	r4, [r1, #3]
 8002162:	70dc      	strb	r4, [r3, #3]
 8002164:	3104      	adds	r1, #4
 8002166:	4291      	cmp	r1, r2
 8002168:	f103 0304 	add.w	r3, r3, #4
 800216c:	d1f2      	bne.n	8002154 <KeyExpansion+0x8>
 800216e:	4a19      	ldr	r2, [pc, #100]	; (80021d4 <KeyExpansion+0x88>)
 8002170:	4f19      	ldr	r7, [pc, #100]	; (80021d8 <KeyExpansion+0x8c>)
 8002172:	2608      	movs	r6, #8
 8002174:	f016 0c07 	ands.w	ip, r6, #7
 8002178:	7f03      	ldrb	r3, [r0, #28]
 800217a:	7f45      	ldrb	r5, [r0, #29]
 800217c:	7f84      	ldrb	r4, [r0, #30]
 800217e:	7fc1      	ldrb	r1, [r0, #31]
 8002180:	d120      	bne.n	80021c4 <KeyExpansion+0x78>
 8002182:	f812 c005 	ldrb.w	ip, [r2, r5]
 8002186:	5d15      	ldrb	r5, [r2, r4]
 8002188:	5c54      	ldrb	r4, [r2, r1]
 800218a:	5cd1      	ldrb	r1, [r2, r3]
 800218c:	08f3      	lsrs	r3, r6, #3
 800218e:	5cfb      	ldrb	r3, [r7, r3]
 8002190:	ea8c 0303 	eor.w	r3, ip, r3
 8002194:	f890 c000 	ldrb.w	ip, [r0]
 8002198:	ea83 030c 	eor.w	r3, r3, ip
 800219c:	f880 3020 	strb.w	r3, [r0, #32]
 80021a0:	7843      	ldrb	r3, [r0, #1]
 80021a2:	405d      	eors	r5, r3
 80021a4:	7883      	ldrb	r3, [r0, #2]
 80021a6:	f880 5021 	strb.w	r5, [r0, #33]	; 0x21
 80021aa:	405c      	eors	r4, r3
 80021ac:	78c3      	ldrb	r3, [r0, #3]
 80021ae:	f880 4022 	strb.w	r4, [r0, #34]	; 0x22
 80021b2:	3601      	adds	r6, #1
 80021b4:	4059      	eors	r1, r3
 80021b6:	2e3c      	cmp	r6, #60	; 0x3c
 80021b8:	f880 1023 	strb.w	r1, [r0, #35]	; 0x23
 80021bc:	f100 0004 	add.w	r0, r0, #4
 80021c0:	d1d8      	bne.n	8002174 <KeyExpansion+0x28>
 80021c2:	bdf0      	pop	{r4, r5, r6, r7, pc}
 80021c4:	f1bc 0f04 	cmp.w	ip, #4
 80021c8:	bf01      	itttt	eq
 80021ca:	5cd3      	ldrbeq	r3, [r2, r3]
 80021cc:	5d55      	ldrbeq	r5, [r2, r5]
 80021ce:	5d14      	ldrbeq	r4, [r2, r4]
 80021d0:	5c51      	ldrbeq	r1, [r2, r1]
 80021d2:	e7df      	b.n	8002194 <KeyExpansion+0x48>
 80021d4:	08003191 	.word	0x08003191
 80021d8:	08003086 	.word	0x08003086

080021dc <AddRoundKey>:
 80021dc:	b570      	push	{r4, r5, r6, lr}
 80021de:	1e4b      	subs	r3, r1, #1
 80021e0:	eb02 1200 	add.w	r2, r2, r0, lsl #4
 80021e4:	310f      	adds	r1, #15
 80021e6:	1d15      	adds	r5, r2, #4
 80021e8:	4618      	mov	r0, r3
 80021ea:	f812 4b01 	ldrb.w	r4, [r2], #1
 80021ee:	f810 6f01 	ldrb.w	r6, [r0, #1]!
 80021f2:	42aa      	cmp	r2, r5
 80021f4:	ea84 0406 	eor.w	r4, r4, r6
 80021f8:	7004      	strb	r4, [r0, #0]
 80021fa:	d1f6      	bne.n	80021ea <AddRoundKey+0xe>
 80021fc:	3304      	adds	r3, #4
 80021fe:	428b      	cmp	r3, r1
 8002200:	d1f1      	bne.n	80021e6 <AddRoundKey+0xa>
 8002202:	bd70      	pop	{r4, r5, r6, pc}

08002204 <xtime>:
 8002204:	09c3      	lsrs	r3, r0, #7
 8002206:	005a      	lsls	r2, r3, #1
 8002208:	4413      	add	r3, r2
 800220a:	eb03 03c3 	add.w	r3, r3, r3, lsl #3
 800220e:	ea83 0040 	eor.w	r0, r3, r0, lsl #1
 8002212:	b2c0      	uxtb	r0, r0
 8002214:	4770      	bx	lr
	...

08002218 <Cipher>:
 8002218:	e92d 4ff0 	stmdb	sp!, {r4, r5, r6, r7, r8, r9, sl, fp, lr}
 800221c:	460a      	mov	r2, r1
 800221e:	b085      	sub	sp, #20
 8002220:	4604      	mov	r4, r0
 8002222:	4689      	mov	r9, r1
 8002224:	4601      	mov	r1, r0
 8002226:	2000      	movs	r0, #0
 8002228:	f7ff ffd8 	bl	80021dc <AddRoundKey>
 800222c:	1d23      	adds	r3, r4, #4
 800222e:	9301      	str	r3, [sp, #4]
 8002230:	f104 0310 	add.w	r3, r4, #16
 8002234:	2501      	movs	r5, #1
 8002236:	9302      	str	r3, [sp, #8]
 8002238:	4621      	mov	r1, r4
 800223a:	4622      	mov	r2, r4
 800223c:	2300      	movs	r3, #0
 800223e:	f812 0023 	ldrb.w	r0, [r2, r3, lsl #2]
 8002242:	4e33      	ldr	r6, [pc, #204]	; (8002310 <Cipher+0xf8>)
 8002244:	5c30      	ldrb	r0, [r6, r0]
 8002246:	f802 0023 	strb.w	r0, [r2, r3, lsl #2]
 800224a:	3301      	adds	r3, #1
 800224c:	2b04      	cmp	r3, #4
 800224e:	d1f6      	bne.n	800223e <Cipher+0x26>
 8002250:	9b01      	ldr	r3, [sp, #4]
 8002252:	3201      	adds	r2, #1
 8002254:	429a      	cmp	r2, r3
 8002256:	d1f1      	bne.n	800223c <Cipher+0x24>
 8002258:	7962      	ldrb	r2, [r4, #5]
 800225a:	7863      	ldrb	r3, [r4, #1]
 800225c:	7062      	strb	r2, [r4, #1]
 800225e:	7a62      	ldrb	r2, [r4, #9]
 8002260:	7162      	strb	r2, [r4, #5]
 8002262:	7b62      	ldrb	r2, [r4, #13]
 8002264:	7262      	strb	r2, [r4, #9]
 8002266:	7aa2      	ldrb	r2, [r4, #10]
 8002268:	7363      	strb	r3, [r4, #13]
 800226a:	78a3      	ldrb	r3, [r4, #2]
 800226c:	70a2      	strb	r2, [r4, #2]
 800226e:	7ba2      	ldrb	r2, [r4, #14]
 8002270:	72a3      	strb	r3, [r4, #10]
 8002272:	79a3      	ldrb	r3, [r4, #6]
 8002274:	71a2      	strb	r2, [r4, #6]
 8002276:	7be2      	ldrb	r2, [r4, #15]
 8002278:	73a3      	strb	r3, [r4, #14]
 800227a:	78e3      	ldrb	r3, [r4, #3]
 800227c:	70e2      	strb	r2, [r4, #3]
 800227e:	7ae2      	ldrb	r2, [r4, #11]
 8002280:	73e2      	strb	r2, [r4, #15]
 8002282:	2d0e      	cmp	r5, #14
 8002284:	79e2      	ldrb	r2, [r4, #7]
 8002286:	72e2      	strb	r2, [r4, #11]
 8002288:	71e3      	strb	r3, [r4, #7]
 800228a:	d039      	beq.n	8002300 <Cipher+0xe8>
 800228c:	f891 a000 	ldrb.w	sl, [r1]
 8002290:	784f      	ldrb	r7, [r1, #1]
 8002292:	788e      	ldrb	r6, [r1, #2]
 8002294:	f891 b003 	ldrb.w	fp, [r1, #3]
 8002298:	ea8a 0007 	eor.w	r0, sl, r7
 800229c:	ea86 020b 	eor.w	r2, r6, fp
 80022a0:	ea82 0800 	eor.w	r8, r2, r0
 80022a4:	9203      	str	r2, [sp, #12]
 80022a6:	f7ff ffad 	bl	8002204 <xtime>
 80022aa:	ea8a 0000 	eor.w	r0, sl, r0
 80022ae:	ea88 0000 	eor.w	r0, r8, r0
 80022b2:	7008      	strb	r0, [r1, #0]
 80022b4:	ea87 0006 	eor.w	r0, r7, r6
 80022b8:	f7ff ffa4 	bl	8002204 <xtime>
 80022bc:	9a03      	ldr	r2, [sp, #12]
 80022be:	4078      	eors	r0, r7
 80022c0:	ea88 0000 	eor.w	r0, r8, r0
 80022c4:	7048      	strb	r0, [r1, #1]
 80022c6:	4610      	mov	r0, r2
 80022c8:	f7ff ff9c 	bl	8002204 <xtime>
 80022cc:	4070      	eors	r0, r6
 80022ce:	ea88 0000 	eor.w	r0, r8, r0
 80022d2:	7088      	strb	r0, [r1, #2]
 80022d4:	ea8a 000b 	eor.w	r0, sl, fp
 80022d8:	f7ff ff94 	bl	8002204 <xtime>
 80022dc:	ea8b 0000 	eor.w	r0, fp, r0
 80022e0:	ea88 0800 	eor.w	r8, r8, r0
 80022e4:	9b02      	ldr	r3, [sp, #8]
 80022e6:	f881 8003 	strb.w	r8, [r1, #3]
 80022ea:	3104      	adds	r1, #4
 80022ec:	428b      	cmp	r3, r1
 80022ee:	d1cd      	bne.n	800228c <Cipher+0x74>
 80022f0:	4628      	mov	r0, r5
 80022f2:	464a      	mov	r2, r9
 80022f4:	4621      	mov	r1, r4
 80022f6:	3501      	adds	r5, #1
 80022f8:	f7ff ff70 	bl	80021dc <AddRoundKey>
 80022fc:	b2ed      	uxtb	r5, r5
 80022fe:	e79b      	b.n	8002238 <Cipher+0x20>
 8002300:	464a      	mov	r2, r9
 8002302:	4621      	mov	r1, r4
 8002304:	4628      	mov	r0, r5
 8002306:	b005      	add	sp, #20
 8002308:	e8bd 4ff0 	ldmia.w	sp!, {r4, r5, r6, r7, r8, r9, sl, fp, lr}
 800230c:	f7ff bf66 	b.w	80021dc <AddRoundKey>
 8002310:	08003191 	.word	0x08003191

08002314 <InvCipher>:
 8002314:	e92d 4ff0 	stmdb	sp!, {r4, r5, r6, r7, r8, r9, sl, fp, lr}
 8002318:	b08d      	sub	sp, #52	; 0x34
 800231a:	4604      	mov	r4, r0
 800231c:	9100      	str	r1, [sp, #0]
 800231e:	460a      	mov	r2, r1
 8002320:	4601      	mov	r1, r0
 8002322:	200e      	movs	r0, #14
 8002324:	f7ff ff5a 	bl	80021dc <AddRoundKey>
 8002328:	1d23      	adds	r3, r4, #4
 800232a:	9308      	str	r3, [sp, #32]
 800232c:	f104 0310 	add.w	r3, r4, #16
 8002330:	250d      	movs	r5, #13
 8002332:	9309      	str	r3, [sp, #36]	; 0x24
 8002334:	7a62      	ldrb	r2, [r4, #9]
 8002336:	7b63      	ldrb	r3, [r4, #13]
 8002338:	7362      	strb	r2, [r4, #13]
 800233a:	7962      	ldrb	r2, [r4, #5]
 800233c:	7262      	strb	r2, [r4, #9]
 800233e:	7862      	ldrb	r2, [r4, #1]
 8002340:	7162      	strb	r2, [r4, #5]
 8002342:	7aa2      	ldrb	r2, [r4, #10]
 8002344:	7063      	strb	r3, [r4, #1]
 8002346:	78a3      	ldrb	r3, [r4, #2]
 8002348:	70a2      	strb	r2, [r4, #2]
 800234a:	7ba2      	ldrb	r2, [r4, #14]
 800234c:	72a3      	strb	r3, [r4, #10]
 800234e:	79a3      	ldrb	r3, [r4, #6]
 8002350:	71a2      	strb	r2, [r4, #6]
 8002352:	79e2      	ldrb	r2, [r4, #7]
 8002354:	73a3      	strb	r3, [r4, #14]
 8002356:	78e3      	ldrb	r3, [r4, #3]
 8002358:	70e2      	strb	r2, [r4, #3]
 800235a:	7ae2      	ldrb	r2, [r4, #11]
 800235c:	71e2      	strb	r2, [r4, #7]
 800235e:	7be2      	ldrb	r2, [r4, #15]
 8002360:	72e2      	strb	r2, [r4, #11]
 8002362:	73e3      	strb	r3, [r4, #15]
 8002364:	4626      	mov	r6, r4
 8002366:	4622      	mov	r2, r4
 8002368:	2300      	movs	r3, #0
 800236a:	f812 1023 	ldrb.w	r1, [r2, r3, lsl #2]
 800236e:	4853      	ldr	r0, [pc, #332]	; (80024bc <InvCipher+0x1a8>)
 8002370:	5c41      	ldrb	r1, [r0, r1]
 8002372:	f802 1023 	strb.w	r1, [r2, r3, lsl #2]
 8002376:	3301      	adds	r3, #1
 8002378:	2b04      	cmp	r3, #4
 800237a:	d1f6      	bne.n	800236a <InvCipher+0x56>
 800237c:	9b08      	ldr	r3, [sp, #32]
 800237e:	3201      	adds	r2, #1
 8002380:	4293      	cmp	r3, r2
 8002382:	d1f1      	bne.n	8002368 <InvCipher+0x54>
 8002384:	9a00      	ldr	r2, [sp, #0]
 8002386:	4621      	mov	r1, r4
 8002388:	4628      	mov	r0, r5
 800238a:	f7ff ff27 	bl	80021dc <AddRoundKey>
 800238e:	2d00      	cmp	r5, #0
 8002390:	f000 8090 	beq.w	80024b4 <InvCipher+0x1a0>
 8002394:	f896 9000 	ldrb.w	r9, [r6]
 8002398:	78f3      	ldrb	r3, [r6, #3]
 800239a:	9306      	str	r3, [sp, #24]
 800239c:	4648      	mov	r0, r9
 800239e:	f7ff ff31 	bl	8002204 <xtime>
 80023a2:	9001      	str	r0, [sp, #4]
 80023a4:	f7ff ff2e 	bl	8002204 <xtime>
 80023a8:	9002      	str	r0, [sp, #8]
 80023aa:	f7ff ff2b 	bl	8002204 <xtime>
 80023ae:	f896 8001 	ldrb.w	r8, [r6, #1]
 80023b2:	900b      	str	r0, [sp, #44]	; 0x2c
 80023b4:	4640      	mov	r0, r8
 80023b6:	f7ff ff25 	bl	8002204 <xtime>
 80023ba:	4601      	mov	r1, r0
 80023bc:	f7ff ff22 	bl	8002204 <xtime>
 80023c0:	9003      	str	r0, [sp, #12]
 80023c2:	f7ff ff1f 	bl	8002204 <xtime>
 80023c6:	78b7      	ldrb	r7, [r6, #2]
 80023c8:	4683      	mov	fp, r0
 80023ca:	4638      	mov	r0, r7
 80023cc:	f7ff ff1a 	bl	8002204 <xtime>
 80023d0:	9004      	str	r0, [sp, #16]
 80023d2:	f7ff ff17 	bl	8002204 <xtime>
 80023d6:	9005      	str	r0, [sp, #20]
 80023d8:	f7ff ff14 	bl	8002204 <xtime>
 80023dc:	9b06      	ldr	r3, [sp, #24]
 80023de:	930a      	str	r3, [sp, #40]	; 0x28
 80023e0:	4682      	mov	sl, r0
 80023e2:	4618      	mov	r0, r3
 80023e4:	f7ff ff0e 	bl	8002204 <xtime>
 80023e8:	9006      	str	r0, [sp, #24]
 80023ea:	f7ff ff0b 	bl	8002204 <xtime>
 80023ee:	9007      	str	r0, [sp, #28]
 80023f0:	f7ff ff08 	bl	8002204 <xtime>
 80023f4:	e9dd 3201 	ldrd	r3, r2, [sp, #4]
 80023f8:	ea83 0c02 	eor.w	ip, r3, r2
 80023fc:	9a0b      	ldr	r2, [sp, #44]	; 0x2c
 80023fe:	9b05      	ldr	r3, [sp, #20]
 8002400:	ea82 0c0c 	eor.w	ip, r2, ip
 8002404:	ea81 0c0c 	eor.w	ip, r1, ip
 8002408:	ea8b 0c0c 	eor.w	ip, fp, ip
 800240c:	ea83 0c0c 	eor.w	ip, r3, ip
 8002410:	ea8a 0c0c 	eor.w	ip, sl, ip
 8002414:	4686      	mov	lr, r0
 8002416:	ea80 0c0c 	eor.w	ip, r0, ip
 800241a:	9803      	ldr	r0, [sp, #12]
 800241c:	9b0a      	ldr	r3, [sp, #40]	; 0x28
 800241e:	4051      	eors	r1, r2
 8002420:	4041      	eors	r1, r0
 8002422:	9804      	ldr	r0, [sp, #16]
 8002424:	ea8b 0101 	eor.w	r1, fp, r1
 8002428:	4041      	eors	r1, r0
 800242a:	9807      	ldr	r0, [sp, #28]
 800242c:	ea8a 0101 	eor.w	r1, sl, r1
 8002430:	4041      	eors	r1, r0
 8002432:	ea81 010e 	eor.w	r1, r1, lr
 8002436:	ea89 0101 	eor.w	r1, r9, r1
 800243a:	4079      	eors	r1, r7
 800243c:	4059      	eors	r1, r3
 800243e:	7071      	strb	r1, [r6, #1]
 8002440:	9902      	ldr	r1, [sp, #8]
 8002442:	9804      	ldr	r0, [sp, #16]
 8002444:	4051      	eors	r1, r2
 8002446:	ea8b 0101 	eor.w	r1, fp, r1
 800244a:	4041      	eors	r1, r0
 800244c:	9805      	ldr	r0, [sp, #20]
 800244e:	4041      	eors	r1, r0
 8002450:	9806      	ldr	r0, [sp, #24]
 8002452:	ea8a 0101 	eor.w	r1, sl, r1
 8002456:	4041      	eors	r1, r0
 8002458:	ea81 010e 	eor.w	r1, r1, lr
 800245c:	ea88 0c0c 	eor.w	ip, r8, ip
 8002460:	ea89 0101 	eor.w	r1, r9, r1
 8002464:	ea87 0c0c 	eor.w	ip, r7, ip
 8002468:	ea88 0101 	eor.w	r1, r8, r1
 800246c:	ea83 0c0c 	eor.w	ip, r3, ip
 8002470:	404b      	eors	r3, r1
 8002472:	f886 c000 	strb.w	ip, [r6]
 8002476:	70b3      	strb	r3, [r6, #2]
 8002478:	9b01      	ldr	r3, [sp, #4]
 800247a:	405a      	eors	r2, r3
 800247c:	9b03      	ldr	r3, [sp, #12]
 800247e:	405a      	eors	r2, r3
 8002480:	ea8b 0b02 	eor.w	fp, fp, r2
 8002484:	9b07      	ldr	r3, [sp, #28]
 8002486:	ea8a 0a0b 	eor.w	sl, sl, fp
 800248a:	ea80 0a0a 	eor.w	sl, r0, sl
 800248e:	ea83 0a0a 	eor.w	sl, r3, sl
 8002492:	ea8e 000a 	eor.w	r0, lr, sl
 8002496:	ea89 0900 	eor.w	r9, r9, r0
 800249a:	ea88 0809 	eor.w	r8, r8, r9
 800249e:	ea87 0708 	eor.w	r7, r7, r8
 80024a2:	9b09      	ldr	r3, [sp, #36]	; 0x24
 80024a4:	70f7      	strb	r7, [r6, #3]
 80024a6:	3604      	adds	r6, #4
 80024a8:	42b3      	cmp	r3, r6
 80024aa:	f47f af73 	bne.w	8002394 <InvCipher+0x80>
 80024ae:	1e6b      	subs	r3, r5, #1
 80024b0:	b2dd      	uxtb	r5, r3
 80024b2:	e73f      	b.n	8002334 <InvCipher+0x20>
 80024b4:	b00d      	add	sp, #52	; 0x34
 80024b6:	e8bd 8ff0 	ldmia.w	sp!, {r4, r5, r6, r7, r8, r9, sl, fp, pc}
 80024ba:	bf00      	nop
 80024bc:	08003091 	.word	0x08003091

080024c0 <AES_init_ctx_iv>:
 80024c0:	b538      	push	{r3, r4, r5, lr}
 80024c2:	4614      	mov	r4, r2
 80024c4:	4605      	mov	r5, r0
 80024c6:	f7ff fe41 	bl	800214c <KeyExpansion>
 80024ca:	4622      	mov	r2, r4
 80024cc:	f105 00f0 	add.w	r0, r5, #240	; 0xf0
 80024d0:	f104 0310 	add.w	r3, r4, #16
 80024d4:	f852 1b04 	ldr.w	r1, [r2], #4
 80024d8:	f840 1b04 	str.w	r1, [r0], #4
 80024dc:	429a      	cmp	r2, r3
 80024de:	d1f9      	bne.n	80024d4 <AES_init_ctx_iv+0x14>
 80024e0:	bd38      	pop	{r3, r4, r5, pc}

080024e2 <AES_CBC_encrypt_buffer>:
 80024e2:	e92d 41f0 	stmdb	sp!, {r4, r5, r6, r7, r8, lr}
 80024e6:	f100 05f0 	add.w	r5, r0, #240	; 0xf0
 80024ea:	4607      	mov	r7, r0
 80024ec:	460e      	mov	r6, r1
 80024ee:	4690      	mov	r8, r2
 80024f0:	462b      	mov	r3, r5
 80024f2:	460c      	mov	r4, r1
 80024f4:	1ba2      	subs	r2, r4, r6
 80024f6:	4590      	cmp	r8, r2
 80024f8:	d809      	bhi.n	800250e <AES_CBC_encrypt_buffer+0x2c>
 80024fa:	f103 0210 	add.w	r2, r3, #16
 80024fe:	f853 1b04 	ldr.w	r1, [r3], #4
 8002502:	f845 1b04 	str.w	r1, [r5], #4
 8002506:	4293      	cmp	r3, r2
 8002508:	d1f9      	bne.n	80024fe <AES_CBC_encrypt_buffer+0x1c>
 800250a:	e8bd 81f0 	ldmia.w	sp!, {r4, r5, r6, r7, r8, pc}
 800250e:	1e61      	subs	r1, r4, #1
 8002510:	3b01      	subs	r3, #1
 8002512:	f104 020f 	add.w	r2, r4, #15
 8002516:	f811 0f01 	ldrb.w	r0, [r1, #1]!
 800251a:	f813 cf01 	ldrb.w	ip, [r3, #1]!
 800251e:	4291      	cmp	r1, r2
 8002520:	ea80 000c 	eor.w	r0, r0, ip
 8002524:	7008      	strb	r0, [r1, #0]
 8002526:	d1f6      	bne.n	8002516 <AES_CBC_encrypt_buffer+0x34>
 8002528:	4620      	mov	r0, r4
 800252a:	4639      	mov	r1, r7
 800252c:	f7ff fe74 	bl	8002218 <Cipher>
 8002530:	4623      	mov	r3, r4
 8002532:	3410      	adds	r4, #16
 8002534:	e7de      	b.n	80024f4 <AES_CBC_encrypt_buffer+0x12>

08002536 <AES_CBC_decrypt_buffer>:
 8002536:	e92d 47ff 	stmdb	sp!, {r0, r1, r2, r3, r4, r5, r6, r7, r8, r9, sl, lr}
 800253a:	4606      	mov	r6, r0
 800253c:	460f      	mov	r7, r1
 800253e:	4691      	mov	r9, r2
 8002540:	460c      	mov	r4, r1
 8002542:	f10d 0a10 	add.w	sl, sp, #16
 8002546:	1be3      	subs	r3, r4, r7
 8002548:	4599      	cmp	r9, r3
 800254a:	d802      	bhi.n	8002552 <AES_CBC_decrypt_buffer+0x1c>
 800254c:	b004      	add	sp, #16
 800254e:	e8bd 87f0 	ldmia.w	sp!, {r4, r5, r6, r7, r8, r9, sl, pc}
 8002552:	466a      	mov	r2, sp
 8002554:	4623      	mov	r3, r4
 8002556:	f104 0810 	add.w	r8, r4, #16
 800255a:	4615      	mov	r5, r2
 800255c:	6818      	ldr	r0, [r3, #0]
 800255e:	6859      	ldr	r1, [r3, #4]
 8002560:	4694      	mov	ip, r2
 8002562:	e8ac 0003 	stmia.w	ip!, {r0, r1}
 8002566:	3308      	adds	r3, #8
 8002568:	4543      	cmp	r3, r8
 800256a:	4662      	mov	r2, ip
 800256c:	d1f6      	bne.n	800255c <AES_CBC_decrypt_buffer+0x26>
 800256e:	4631      	mov	r1, r6
 8002570:	4620      	mov	r0, r4
 8002572:	f7ff fecf 	bl	8002314 <InvCipher>
 8002576:	1e63      	subs	r3, r4, #1
 8002578:	f106 01ef 	add.w	r1, r6, #239	; 0xef
 800257c:	340f      	adds	r4, #15
 800257e:	f813 2f01 	ldrb.w	r2, [r3, #1]!
 8002582:	f811 0f01 	ldrb.w	r0, [r1, #1]!
 8002586:	42a3      	cmp	r3, r4
 8002588:	ea82 0200 	eor.w	r2, r2, r0
 800258c:	701a      	strb	r2, [r3, #0]
 800258e:	d1f6      	bne.n	800257e <AES_CBC_decrypt_buffer+0x48>
 8002590:	462c      	mov	r4, r5
 8002592:	f106 02f0 	add.w	r2, r6, #240	; 0xf0
 8002596:	4623      	mov	r3, r4
 8002598:	cb03      	ldmia	r3!, {r0, r1}
 800259a:	4553      	cmp	r3, sl
 800259c:	6010      	str	r0, [r2, #0]
 800259e:	6051      	str	r1, [r2, #4]
 80025a0:	461c      	mov	r4, r3
 80025a2:	f102 0208 	add.w	r2, r2, #8
 80025a6:	d1f6      	bne.n	8002596 <AES_CBC_decrypt_buffer+0x60>
 80025a8:	4644      	mov	r4, r8
 80025aa:	e7cc      	b.n	8002546 <AES_CBC_decrypt_buffer+0x10>

080025ac <__errno>:
 80025ac:	4b01      	ldr	r3, [pc, #4]	; (80025b4 <__errno+0x8>)
 80025ae:	6818      	ldr	r0, [r3, #0]
 80025b0:	4770      	bx	lr
 80025b2:	bf00      	nop
 80025b4:	2000000c 	.word	0x2000000c

080025b8 <__libc_init_array>:
 80025b8:	b570      	push	{r4, r5, r6, lr}
 80025ba:	4e0d      	ldr	r6, [pc, #52]	; (80025f0 <__libc_init_array+0x38>)
 80025bc:	4c0d      	ldr	r4, [pc, #52]	; (80025f4 <__libc_init_array+0x3c>)
 80025be:	1ba4      	subs	r4, r4, r6
 80025c0:	10a4      	asrs	r4, r4, #2
 80025c2:	2500      	movs	r5, #0
 80025c4:	42a5      	cmp	r5, r4
 80025c6:	d109      	bne.n	80025dc <__libc_init_array+0x24>
 80025c8:	4e0b      	ldr	r6, [pc, #44]	; (80025f8 <__libc_init_array+0x40>)
 80025ca:	4c0c      	ldr	r4, [pc, #48]	; (80025fc <__libc_init_array+0x44>)
 80025cc:	f000 fc26 	bl	8002e1c <_init>
 80025d0:	1ba4      	subs	r4, r4, r6
 80025d2:	10a4      	asrs	r4, r4, #2
 80025d4:	2500      	movs	r5, #0
 80025d6:	42a5      	cmp	r5, r4
 80025d8:	d105      	bne.n	80025e6 <__libc_init_array+0x2e>
 80025da:	bd70      	pop	{r4, r5, r6, pc}
 80025dc:	f856 3025 	ldr.w	r3, [r6, r5, lsl #2]
 80025e0:	4798      	blx	r3
 80025e2:	3501      	adds	r5, #1
 80025e4:	e7ee      	b.n	80025c4 <__libc_init_array+0xc>
 80025e6:	f856 3025 	ldr.w	r3, [r6, r5, lsl #2]
 80025ea:	4798      	blx	r3
 80025ec:	3501      	adds	r5, #1
 80025ee:	e7f2      	b.n	80025d6 <__libc_init_array+0x1e>
 80025f0:	080032c4 	.word	0x080032c4
 80025f4:	080032c4 	.word	0x080032c4
 80025f8:	080032c4 	.word	0x080032c4
 80025fc:	080032c8 	.word	0x080032c8

08002600 <memcpy>:
 8002600:	b510      	push	{r4, lr}
 8002602:	1e43      	subs	r3, r0, #1
 8002604:	440a      	add	r2, r1
 8002606:	4291      	cmp	r1, r2
 8002608:	d100      	bne.n	800260c <memcpy+0xc>
 800260a:	bd10      	pop	{r4, pc}
 800260c:	f811 4b01 	ldrb.w	r4, [r1], #1
 8002610:	f803 4f01 	strb.w	r4, [r3, #1]!
 8002614:	e7f7      	b.n	8002606 <memcpy+0x6>

08002616 <memmove>:
 8002616:	4288      	cmp	r0, r1
 8002618:	b510      	push	{r4, lr}
 800261a:	eb01 0302 	add.w	r3, r1, r2
 800261e:	d807      	bhi.n	8002630 <memmove+0x1a>
 8002620:	1e42      	subs	r2, r0, #1
 8002622:	4299      	cmp	r1, r3
 8002624:	d00a      	beq.n	800263c <memmove+0x26>
 8002626:	f811 4b01 	ldrb.w	r4, [r1], #1
 800262a:	f802 4f01 	strb.w	r4, [r2, #1]!
 800262e:	e7f8      	b.n	8002622 <memmove+0xc>
 8002630:	4283      	cmp	r3, r0
 8002632:	d9f5      	bls.n	8002620 <memmove+0xa>
 8002634:	1881      	adds	r1, r0, r2
 8002636:	1ad2      	subs	r2, r2, r3
 8002638:	42d3      	cmn	r3, r2
 800263a:	d100      	bne.n	800263e <memmove+0x28>
 800263c:	bd10      	pop	{r4, pc}
 800263e:	f813 4d01 	ldrb.w	r4, [r3, #-1]!
 8002642:	f801 4d01 	strb.w	r4, [r1, #-1]!
 8002646:	e7f7      	b.n	8002638 <memmove+0x22>

08002648 <memset>:
 8002648:	4402      	add	r2, r0
 800264a:	4603      	mov	r3, r0
 800264c:	4293      	cmp	r3, r2
 800264e:	d100      	bne.n	8002652 <memset+0xa>
 8002650:	4770      	bx	lr
 8002652:	f803 1b01 	strb.w	r1, [r3], #1
 8002656:	e7f9      	b.n	800264c <memset+0x4>

08002658 <_vsiprintf_r>:
 8002658:	b500      	push	{lr}
 800265a:	b09b      	sub	sp, #108	; 0x6c
 800265c:	9100      	str	r1, [sp, #0]
 800265e:	9104      	str	r1, [sp, #16]
 8002660:	f06f 4100 	mvn.w	r1, #2147483648	; 0x80000000
 8002664:	9105      	str	r1, [sp, #20]
 8002666:	9102      	str	r1, [sp, #8]
 8002668:	4905      	ldr	r1, [pc, #20]	; (8002680 <_vsiprintf_r+0x28>)
 800266a:	9103      	str	r1, [sp, #12]
 800266c:	4669      	mov	r1, sp
 800266e:	f000 f86d 	bl	800274c <_svfiprintf_r>
 8002672:	9b00      	ldr	r3, [sp, #0]
 8002674:	2200      	movs	r2, #0
 8002676:	701a      	strb	r2, [r3, #0]
 8002678:	b01b      	add	sp, #108	; 0x6c
 800267a:	f85d fb04 	ldr.w	pc, [sp], #4
 800267e:	bf00      	nop
 8002680:	ffff0208 	.word	0xffff0208

08002684 <vsiprintf>:
 8002684:	4613      	mov	r3, r2
 8002686:	460a      	mov	r2, r1
 8002688:	4601      	mov	r1, r0
 800268a:	4802      	ldr	r0, [pc, #8]	; (8002694 <vsiprintf+0x10>)
 800268c:	6800      	ldr	r0, [r0, #0]
 800268e:	f7ff bfe3 	b.w	8002658 <_vsiprintf_r>
 8002692:	bf00      	nop
 8002694:	2000000c 	.word	0x2000000c

08002698 <__ssputs_r>:
 8002698:	e92d 47f0 	stmdb	sp!, {r4, r5, r6, r7, r8, r9, sl, lr}
 800269c:	688e      	ldr	r6, [r1, #8]
 800269e:	429e      	cmp	r6, r3
 80026a0:	4682      	mov	sl, r0
 80026a2:	460c      	mov	r4, r1
 80026a4:	4690      	mov	r8, r2
 80026a6:	4699      	mov	r9, r3
 80026a8:	d837      	bhi.n	800271a <__ssputs_r+0x82>
 80026aa:	898a      	ldrh	r2, [r1, #12]
 80026ac:	f412 6f90 	tst.w	r2, #1152	; 0x480
 80026b0:	d031      	beq.n	8002716 <__ssputs_r+0x7e>
 80026b2:	6825      	ldr	r5, [r4, #0]
 80026b4:	6909      	ldr	r1, [r1, #16]
 80026b6:	1a6f      	subs	r7, r5, r1
 80026b8:	6965      	ldr	r5, [r4, #20]
 80026ba:	2302      	movs	r3, #2
 80026bc:	eb05 0545 	add.w	r5, r5, r5, lsl #1
 80026c0:	fb95 f5f3 	sdiv	r5, r5, r3
 80026c4:	f109 0301 	add.w	r3, r9, #1
 80026c8:	443b      	add	r3, r7
 80026ca:	429d      	cmp	r5, r3
 80026cc:	bf38      	it	cc
 80026ce:	461d      	movcc	r5, r3
 80026d0:	0553      	lsls	r3, r2, #21
 80026d2:	d530      	bpl.n	8002736 <__ssputs_r+0x9e>
 80026d4:	4629      	mov	r1, r5
 80026d6:	f000 fb07 	bl	8002ce8 <_malloc_r>
 80026da:	4606      	mov	r6, r0
 80026dc:	b950      	cbnz	r0, 80026f4 <__ssputs_r+0x5c>
 80026de:	230c      	movs	r3, #12
 80026e0:	f8ca 3000 	str.w	r3, [sl]
 80026e4:	89a3      	ldrh	r3, [r4, #12]
 80026e6:	f043 0340 	orr.w	r3, r3, #64	; 0x40
 80026ea:	81a3      	strh	r3, [r4, #12]
 80026ec:	f04f 30ff 	mov.w	r0, #4294967295
 80026f0:	e8bd 87f0 	ldmia.w	sp!, {r4, r5, r6, r7, r8, r9, sl, pc}
 80026f4:	463a      	mov	r2, r7
 80026f6:	6921      	ldr	r1, [r4, #16]
 80026f8:	f7ff ff82 	bl	8002600 <memcpy>
 80026fc:	89a3      	ldrh	r3, [r4, #12]
 80026fe:	f423 6390 	bic.w	r3, r3, #1152	; 0x480
 8002702:	f043 0380 	orr.w	r3, r3, #128	; 0x80
 8002706:	81a3      	strh	r3, [r4, #12]
 8002708:	6126      	str	r6, [r4, #16]
 800270a:	6165      	str	r5, [r4, #20]
 800270c:	443e      	add	r6, r7
 800270e:	1bed      	subs	r5, r5, r7
 8002710:	6026      	str	r6, [r4, #0]
 8002712:	60a5      	str	r5, [r4, #8]
 8002714:	464e      	mov	r6, r9
 8002716:	454e      	cmp	r6, r9
 8002718:	d900      	bls.n	800271c <__ssputs_r+0x84>
 800271a:	464e      	mov	r6, r9
 800271c:	4632      	mov	r2, r6
 800271e:	4641      	mov	r1, r8
 8002720:	6820      	ldr	r0, [r4, #0]
 8002722:	f7ff ff78 	bl	8002616 <memmove>
 8002726:	68a3      	ldr	r3, [r4, #8]
 8002728:	1b9b      	subs	r3, r3, r6
 800272a:	60a3      	str	r3, [r4, #8]
 800272c:	6823      	ldr	r3, [r4, #0]
 800272e:	441e      	add	r6, r3
 8002730:	6026      	str	r6, [r4, #0]
 8002732:	2000      	movs	r0, #0
 8002734:	e7dc      	b.n	80026f0 <__ssputs_r+0x58>
 8002736:	462a      	mov	r2, r5
 8002738:	f000 fb30 	bl	8002d9c <_realloc_r>
 800273c:	4606      	mov	r6, r0
 800273e:	2800      	cmp	r0, #0
 8002740:	d1e2      	bne.n	8002708 <__ssputs_r+0x70>
 8002742:	6921      	ldr	r1, [r4, #16]
 8002744:	4650      	mov	r0, sl
 8002746:	f000 fa81 	bl	8002c4c <_free_r>
 800274a:	e7c8      	b.n	80026de <__ssputs_r+0x46>

0800274c <_svfiprintf_r>:
 800274c:	e92d 4ff0 	stmdb	sp!, {r4, r5, r6, r7, r8, r9, sl, fp, lr}
 8002750:	461d      	mov	r5, r3
 8002752:	898b      	ldrh	r3, [r1, #12]
 8002754:	061f      	lsls	r7, r3, #24
 8002756:	b09d      	sub	sp, #116	; 0x74
 8002758:	4680      	mov	r8, r0
 800275a:	460c      	mov	r4, r1
 800275c:	4616      	mov	r6, r2
 800275e:	d50f      	bpl.n	8002780 <_svfiprintf_r+0x34>
 8002760:	690b      	ldr	r3, [r1, #16]
 8002762:	b96b      	cbnz	r3, 8002780 <_svfiprintf_r+0x34>
 8002764:	2140      	movs	r1, #64	; 0x40
 8002766:	f000 fabf 	bl	8002ce8 <_malloc_r>
 800276a:	6020      	str	r0, [r4, #0]
 800276c:	6120      	str	r0, [r4, #16]
 800276e:	b928      	cbnz	r0, 800277c <_svfiprintf_r+0x30>
 8002770:	230c      	movs	r3, #12
 8002772:	f8c8 3000 	str.w	r3, [r8]
 8002776:	f04f 30ff 	mov.w	r0, #4294967295
 800277a:	e0c8      	b.n	800290e <_svfiprintf_r+0x1c2>
 800277c:	2340      	movs	r3, #64	; 0x40
 800277e:	6163      	str	r3, [r4, #20]
 8002780:	2300      	movs	r3, #0
 8002782:	9309      	str	r3, [sp, #36]	; 0x24
 8002784:	2320      	movs	r3, #32
 8002786:	f88d 3029 	strb.w	r3, [sp, #41]	; 0x29
 800278a:	2330      	movs	r3, #48	; 0x30
 800278c:	f88d 302a 	strb.w	r3, [sp, #42]	; 0x2a
 8002790:	9503      	str	r5, [sp, #12]
 8002792:	f04f 0b01 	mov.w	fp, #1
 8002796:	4637      	mov	r7, r6
 8002798:	463d      	mov	r5, r7
 800279a:	f815 3b01 	ldrb.w	r3, [r5], #1
 800279e:	b10b      	cbz	r3, 80027a4 <_svfiprintf_r+0x58>
 80027a0:	2b25      	cmp	r3, #37	; 0x25
 80027a2:	d13e      	bne.n	8002822 <_svfiprintf_r+0xd6>
 80027a4:	ebb7 0a06 	subs.w	sl, r7, r6
 80027a8:	d00b      	beq.n	80027c2 <_svfiprintf_r+0x76>
 80027aa:	4653      	mov	r3, sl
 80027ac:	4632      	mov	r2, r6
 80027ae:	4621      	mov	r1, r4
 80027b0:	4640      	mov	r0, r8
 80027b2:	f7ff ff71 	bl	8002698 <__ssputs_r>
 80027b6:	3001      	adds	r0, #1
 80027b8:	f000 80a4 	beq.w	8002904 <_svfiprintf_r+0x1b8>
 80027bc:	9b09      	ldr	r3, [sp, #36]	; 0x24
 80027be:	4453      	add	r3, sl
 80027c0:	9309      	str	r3, [sp, #36]	; 0x24
 80027c2:	783b      	ldrb	r3, [r7, #0]
 80027c4:	2b00      	cmp	r3, #0
 80027c6:	f000 809d 	beq.w	8002904 <_svfiprintf_r+0x1b8>
 80027ca:	2300      	movs	r3, #0
 80027cc:	f04f 32ff 	mov.w	r2, #4294967295
 80027d0:	e9cd 2305 	strd	r2, r3, [sp, #20]
 80027d4:	9304      	str	r3, [sp, #16]
 80027d6:	9307      	str	r3, [sp, #28]
 80027d8:	f88d 3053 	strb.w	r3, [sp, #83]	; 0x53
 80027dc:	931a      	str	r3, [sp, #104]	; 0x68
 80027de:	462f      	mov	r7, r5
 80027e0:	2205      	movs	r2, #5
 80027e2:	f817 1b01 	ldrb.w	r1, [r7], #1
 80027e6:	4850      	ldr	r0, [pc, #320]	; (8002928 <_svfiprintf_r+0x1dc>)
 80027e8:	f7fd fd0a 	bl	8000200 <memchr>
 80027ec:	9b04      	ldr	r3, [sp, #16]
 80027ee:	b9d0      	cbnz	r0, 8002826 <_svfiprintf_r+0xda>
 80027f0:	06d9      	lsls	r1, r3, #27
 80027f2:	bf44      	itt	mi
 80027f4:	2220      	movmi	r2, #32
 80027f6:	f88d 2053 	strbmi.w	r2, [sp, #83]	; 0x53
 80027fa:	071a      	lsls	r2, r3, #28
 80027fc:	bf44      	itt	mi
 80027fe:	222b      	movmi	r2, #43	; 0x2b
 8002800:	f88d 2053 	strbmi.w	r2, [sp, #83]	; 0x53
 8002804:	782a      	ldrb	r2, [r5, #0]
 8002806:	2a2a      	cmp	r2, #42	; 0x2a
 8002808:	d015      	beq.n	8002836 <_svfiprintf_r+0xea>
 800280a:	9a07      	ldr	r2, [sp, #28]
 800280c:	462f      	mov	r7, r5
 800280e:	2000      	movs	r0, #0
 8002810:	250a      	movs	r5, #10
 8002812:	4639      	mov	r1, r7
 8002814:	f811 3b01 	ldrb.w	r3, [r1], #1
 8002818:	3b30      	subs	r3, #48	; 0x30
 800281a:	2b09      	cmp	r3, #9
 800281c:	d94d      	bls.n	80028ba <_svfiprintf_r+0x16e>
 800281e:	b1b8      	cbz	r0, 8002850 <_svfiprintf_r+0x104>
 8002820:	e00f      	b.n	8002842 <_svfiprintf_r+0xf6>
 8002822:	462f      	mov	r7, r5
 8002824:	e7b8      	b.n	8002798 <_svfiprintf_r+0x4c>
 8002826:	4a40      	ldr	r2, [pc, #256]	; (8002928 <_svfiprintf_r+0x1dc>)
 8002828:	1a80      	subs	r0, r0, r2
 800282a:	fa0b f000 	lsl.w	r0, fp, r0
 800282e:	4318      	orrs	r0, r3
 8002830:	9004      	str	r0, [sp, #16]
 8002832:	463d      	mov	r5, r7
 8002834:	e7d3      	b.n	80027de <_svfiprintf_r+0x92>
 8002836:	9a03      	ldr	r2, [sp, #12]
 8002838:	1d11      	adds	r1, r2, #4
 800283a:	6812      	ldr	r2, [r2, #0]
 800283c:	9103      	str	r1, [sp, #12]
 800283e:	2a00      	cmp	r2, #0
 8002840:	db01      	blt.n	8002846 <_svfiprintf_r+0xfa>
 8002842:	9207      	str	r2, [sp, #28]
 8002844:	e004      	b.n	8002850 <_svfiprintf_r+0x104>
 8002846:	4252      	negs	r2, r2
 8002848:	f043 0302 	orr.w	r3, r3, #2
 800284c:	9207      	str	r2, [sp, #28]
 800284e:	9304      	str	r3, [sp, #16]
 8002850:	783b      	ldrb	r3, [r7, #0]
 8002852:	2b2e      	cmp	r3, #46	; 0x2e
 8002854:	d10c      	bne.n	8002870 <_svfiprintf_r+0x124>
 8002856:	787b      	ldrb	r3, [r7, #1]
 8002858:	2b2a      	cmp	r3, #42	; 0x2a
 800285a:	d133      	bne.n	80028c4 <_svfiprintf_r+0x178>
 800285c:	9b03      	ldr	r3, [sp, #12]
 800285e:	1d1a      	adds	r2, r3, #4
 8002860:	681b      	ldr	r3, [r3, #0]
 8002862:	9203      	str	r2, [sp, #12]
 8002864:	2b00      	cmp	r3, #0
 8002866:	bfb8      	it	lt
 8002868:	f04f 33ff 	movlt.w	r3, #4294967295
 800286c:	3702      	adds	r7, #2
 800286e:	9305      	str	r3, [sp, #20]
 8002870:	4d2e      	ldr	r5, [pc, #184]	; (800292c <_svfiprintf_r+0x1e0>)
 8002872:	7839      	ldrb	r1, [r7, #0]
 8002874:	2203      	movs	r2, #3
 8002876:	4628      	mov	r0, r5
 8002878:	f7fd fcc2 	bl	8000200 <memchr>
 800287c:	b138      	cbz	r0, 800288e <_svfiprintf_r+0x142>
 800287e:	2340      	movs	r3, #64	; 0x40
 8002880:	1b40      	subs	r0, r0, r5
 8002882:	fa03 f000 	lsl.w	r0, r3, r0
 8002886:	9b04      	ldr	r3, [sp, #16]
 8002888:	4303      	orrs	r3, r0
 800288a:	3701      	adds	r7, #1
 800288c:	9304      	str	r3, [sp, #16]
 800288e:	7839      	ldrb	r1, [r7, #0]
 8002890:	4827      	ldr	r0, [pc, #156]	; (8002930 <_svfiprintf_r+0x1e4>)
 8002892:	f88d 1028 	strb.w	r1, [sp, #40]	; 0x28
 8002896:	2206      	movs	r2, #6
 8002898:	1c7e      	adds	r6, r7, #1
 800289a:	f7fd fcb1 	bl	8000200 <memchr>
 800289e:	2800      	cmp	r0, #0
 80028a0:	d038      	beq.n	8002914 <_svfiprintf_r+0x1c8>
 80028a2:	4b24      	ldr	r3, [pc, #144]	; (8002934 <_svfiprintf_r+0x1e8>)
 80028a4:	bb13      	cbnz	r3, 80028ec <_svfiprintf_r+0x1a0>
 80028a6:	9b03      	ldr	r3, [sp, #12]
 80028a8:	3307      	adds	r3, #7
 80028aa:	f023 0307 	bic.w	r3, r3, #7
 80028ae:	3308      	adds	r3, #8
 80028b0:	9303      	str	r3, [sp, #12]
 80028b2:	9b09      	ldr	r3, [sp, #36]	; 0x24
 80028b4:	444b      	add	r3, r9
 80028b6:	9309      	str	r3, [sp, #36]	; 0x24
 80028b8:	e76d      	b.n	8002796 <_svfiprintf_r+0x4a>
 80028ba:	fb05 3202 	mla	r2, r5, r2, r3
 80028be:	2001      	movs	r0, #1
 80028c0:	460f      	mov	r7, r1
 80028c2:	e7a6      	b.n	8002812 <_svfiprintf_r+0xc6>
 80028c4:	2300      	movs	r3, #0
 80028c6:	3701      	adds	r7, #1
 80028c8:	9305      	str	r3, [sp, #20]
 80028ca:	4619      	mov	r1, r3
 80028cc:	250a      	movs	r5, #10
 80028ce:	4638      	mov	r0, r7
 80028d0:	f810 2b01 	ldrb.w	r2, [r0], #1
 80028d4:	3a30      	subs	r2, #48	; 0x30
 80028d6:	2a09      	cmp	r2, #9
 80028d8:	d903      	bls.n	80028e2 <_svfiprintf_r+0x196>
 80028da:	2b00      	cmp	r3, #0
 80028dc:	d0c8      	beq.n	8002870 <_svfiprintf_r+0x124>
 80028de:	9105      	str	r1, [sp, #20]
 80028e0:	e7c6      	b.n	8002870 <_svfiprintf_r+0x124>
 80028e2:	fb05 2101 	mla	r1, r5, r1, r2
 80028e6:	2301      	movs	r3, #1
 80028e8:	4607      	mov	r7, r0
 80028ea:	e7f0      	b.n	80028ce <_svfiprintf_r+0x182>
 80028ec:	ab03      	add	r3, sp, #12
 80028ee:	9300      	str	r3, [sp, #0]
 80028f0:	4622      	mov	r2, r4
 80028f2:	4b11      	ldr	r3, [pc, #68]	; (8002938 <_svfiprintf_r+0x1ec>)
 80028f4:	a904      	add	r1, sp, #16
 80028f6:	4640      	mov	r0, r8
 80028f8:	f3af 8000 	nop.w
 80028fc:	f1b0 3fff 	cmp.w	r0, #4294967295
 8002900:	4681      	mov	r9, r0
 8002902:	d1d6      	bne.n	80028b2 <_svfiprintf_r+0x166>
 8002904:	89a3      	ldrh	r3, [r4, #12]
 8002906:	065b      	lsls	r3, r3, #25
 8002908:	f53f af35 	bmi.w	8002776 <_svfiprintf_r+0x2a>
 800290c:	9809      	ldr	r0, [sp, #36]	; 0x24
 800290e:	b01d      	add	sp, #116	; 0x74
 8002910:	e8bd 8ff0 	ldmia.w	sp!, {r4, r5, r6, r7, r8, r9, sl, fp, pc}
 8002914:	ab03      	add	r3, sp, #12
 8002916:	9300      	str	r3, [sp, #0]
 8002918:	4622      	mov	r2, r4
 800291a:	4b07      	ldr	r3, [pc, #28]	; (8002938 <_svfiprintf_r+0x1ec>)
 800291c:	a904      	add	r1, sp, #16
 800291e:	4640      	mov	r0, r8
 8002920:	f000 f882 	bl	8002a28 <_printf_i>
 8002924:	e7ea      	b.n	80028fc <_svfiprintf_r+0x1b0>
 8002926:	bf00      	nop
 8002928:	08003291 	.word	0x08003291
 800292c:	08003297 	.word	0x08003297
 8002930:	0800329b 	.word	0x0800329b
 8002934:	00000000 	.word	0x00000000
 8002938:	08002699 	.word	0x08002699

0800293c <_printf_common>:
 800293c:	e92d 47f0 	stmdb	sp!, {r4, r5, r6, r7, r8, r9, sl, lr}
 8002940:	4691      	mov	r9, r2
 8002942:	461f      	mov	r7, r3
 8002944:	688a      	ldr	r2, [r1, #8]
 8002946:	690b      	ldr	r3, [r1, #16]
 8002948:	f8dd 8020 	ldr.w	r8, [sp, #32]
 800294c:	4293      	cmp	r3, r2
 800294e:	bfb8      	it	lt
 8002950:	4613      	movlt	r3, r2
 8002952:	f8c9 3000 	str.w	r3, [r9]
 8002956:	f891 2043 	ldrb.w	r2, [r1, #67]	; 0x43
 800295a:	4606      	mov	r6, r0
 800295c:	460c      	mov	r4, r1
 800295e:	b112      	cbz	r2, 8002966 <_printf_common+0x2a>
 8002960:	3301      	adds	r3, #1
 8002962:	f8c9 3000 	str.w	r3, [r9]
 8002966:	6823      	ldr	r3, [r4, #0]
 8002968:	0699      	lsls	r1, r3, #26
 800296a:	bf42      	ittt	mi
 800296c:	f8d9 3000 	ldrmi.w	r3, [r9]
 8002970:	3302      	addmi	r3, #2
 8002972:	f8c9 3000 	strmi.w	r3, [r9]
 8002976:	6825      	ldr	r5, [r4, #0]
 8002978:	f015 0506 	ands.w	r5, r5, #6
 800297c:	d107      	bne.n	800298e <_printf_common+0x52>
 800297e:	f104 0a19 	add.w	sl, r4, #25
 8002982:	68e3      	ldr	r3, [r4, #12]
 8002984:	f8d9 2000 	ldr.w	r2, [r9]
 8002988:	1a9b      	subs	r3, r3, r2
 800298a:	42ab      	cmp	r3, r5
 800298c:	dc28      	bgt.n	80029e0 <_printf_common+0xa4>
 800298e:	f894 3043 	ldrb.w	r3, [r4, #67]	; 0x43
 8002992:	6822      	ldr	r2, [r4, #0]
 8002994:	3300      	adds	r3, #0
 8002996:	bf18      	it	ne
 8002998:	2301      	movne	r3, #1
 800299a:	0692      	lsls	r2, r2, #26
 800299c:	d42d      	bmi.n	80029fa <_printf_common+0xbe>
 800299e:	f104 0243 	add.w	r2, r4, #67	; 0x43
 80029a2:	4639      	mov	r1, r7
 80029a4:	4630      	mov	r0, r6
 80029a6:	47c0      	blx	r8
 80029a8:	3001      	adds	r0, #1
 80029aa:	d020      	beq.n	80029ee <_printf_common+0xb2>
 80029ac:	6823      	ldr	r3, [r4, #0]
 80029ae:	68e5      	ldr	r5, [r4, #12]
 80029b0:	f8d9 2000 	ldr.w	r2, [r9]
 80029b4:	f003 0306 	and.w	r3, r3, #6
 80029b8:	2b04      	cmp	r3, #4
 80029ba:	bf08      	it	eq
 80029bc:	1aad      	subeq	r5, r5, r2
 80029be:	68a3      	ldr	r3, [r4, #8]
 80029c0:	6922      	ldr	r2, [r4, #16]
 80029c2:	bf0c      	ite	eq
 80029c4:	ea25 75e5 	biceq.w	r5, r5, r5, asr #31
 80029c8:	2500      	movne	r5, #0
 80029ca:	4293      	cmp	r3, r2
 80029cc:	bfc4      	itt	gt
 80029ce:	1a9b      	subgt	r3, r3, r2
 80029d0:	18ed      	addgt	r5, r5, r3
 80029d2:	f04f 0900 	mov.w	r9, #0
 80029d6:	341a      	adds	r4, #26
 80029d8:	454d      	cmp	r5, r9
 80029da:	d11a      	bne.n	8002a12 <_printf_common+0xd6>
 80029dc:	2000      	movs	r0, #0
 80029de:	e008      	b.n	80029f2 <_printf_common+0xb6>
 80029e0:	2301      	movs	r3, #1
 80029e2:	4652      	mov	r2, sl
 80029e4:	4639      	mov	r1, r7
 80029e6:	4630      	mov	r0, r6
 80029e8:	47c0      	blx	r8
 80029ea:	3001      	adds	r0, #1
 80029ec:	d103      	bne.n	80029f6 <_printf_common+0xba>
 80029ee:	f04f 30ff 	mov.w	r0, #4294967295
 80029f2:	e8bd 87f0 	ldmia.w	sp!, {r4, r5, r6, r7, r8, r9, sl, pc}
 80029f6:	3501      	adds	r5, #1
 80029f8:	e7c3      	b.n	8002982 <_printf_common+0x46>
 80029fa:	18e1      	adds	r1, r4, r3
 80029fc:	1c5a      	adds	r2, r3, #1
 80029fe:	2030      	movs	r0, #48	; 0x30
 8002a00:	f881 0043 	strb.w	r0, [r1, #67]	; 0x43
 8002a04:	4422      	add	r2, r4
 8002a06:	f894 1045 	ldrb.w	r1, [r4, #69]	; 0x45
 8002a0a:	f882 1043 	strb.w	r1, [r2, #67]	; 0x43
 8002a0e:	3302      	adds	r3, #2
 8002a10:	e7c5      	b.n	800299e <_printf_common+0x62>
 8002a12:	2301      	movs	r3, #1
 8002a14:	4622      	mov	r2, r4
 8002a16:	4639      	mov	r1, r7
 8002a18:	4630      	mov	r0, r6
 8002a1a:	47c0      	blx	r8
 8002a1c:	3001      	adds	r0, #1
 8002a1e:	d0e6      	beq.n	80029ee <_printf_common+0xb2>
 8002a20:	f109 0901 	add.w	r9, r9, #1
 8002a24:	e7d8      	b.n	80029d8 <_printf_common+0x9c>
	...

08002a28 <_printf_i>:
 8002a28:	e92d 43f0 	stmdb	sp!, {r4, r5, r6, r7, r8, r9, lr}
 8002a2c:	f101 0c43 	add.w	ip, r1, #67	; 0x43
 8002a30:	460c      	mov	r4, r1
 8002a32:	7e09      	ldrb	r1, [r1, #24]
 8002a34:	b085      	sub	sp, #20
 8002a36:	296e      	cmp	r1, #110	; 0x6e
 8002a38:	4617      	mov	r7, r2
 8002a3a:	4606      	mov	r6, r0
 8002a3c:	4698      	mov	r8, r3
 8002a3e:	9a0c      	ldr	r2, [sp, #48]	; 0x30
 8002a40:	f000 80b3 	beq.w	8002baa <_printf_i+0x182>
 8002a44:	d822      	bhi.n	8002a8c <_printf_i+0x64>
 8002a46:	2963      	cmp	r1, #99	; 0x63
 8002a48:	d036      	beq.n	8002ab8 <_printf_i+0x90>
 8002a4a:	d80a      	bhi.n	8002a62 <_printf_i+0x3a>
 8002a4c:	2900      	cmp	r1, #0
 8002a4e:	f000 80b9 	beq.w	8002bc4 <_printf_i+0x19c>
 8002a52:	2958      	cmp	r1, #88	; 0x58
 8002a54:	f000 8083 	beq.w	8002b5e <_printf_i+0x136>
 8002a58:	f104 0542 	add.w	r5, r4, #66	; 0x42
 8002a5c:	f884 1042 	strb.w	r1, [r4, #66]	; 0x42
 8002a60:	e032      	b.n	8002ac8 <_printf_i+0xa0>
 8002a62:	2964      	cmp	r1, #100	; 0x64
 8002a64:	d001      	beq.n	8002a6a <_printf_i+0x42>
 8002a66:	2969      	cmp	r1, #105	; 0x69
 8002a68:	d1f6      	bne.n	8002a58 <_printf_i+0x30>
 8002a6a:	6820      	ldr	r0, [r4, #0]
 8002a6c:	6813      	ldr	r3, [r2, #0]
 8002a6e:	0605      	lsls	r5, r0, #24
 8002a70:	f103 0104 	add.w	r1, r3, #4
 8002a74:	d52a      	bpl.n	8002acc <_printf_i+0xa4>
 8002a76:	681b      	ldr	r3, [r3, #0]
 8002a78:	6011      	str	r1, [r2, #0]
 8002a7a:	2b00      	cmp	r3, #0
 8002a7c:	da03      	bge.n	8002a86 <_printf_i+0x5e>
 8002a7e:	222d      	movs	r2, #45	; 0x2d
 8002a80:	425b      	negs	r3, r3
 8002a82:	f884 2043 	strb.w	r2, [r4, #67]	; 0x43
 8002a86:	486f      	ldr	r0, [pc, #444]	; (8002c44 <_printf_i+0x21c>)
 8002a88:	220a      	movs	r2, #10
 8002a8a:	e039      	b.n	8002b00 <_printf_i+0xd8>
 8002a8c:	2973      	cmp	r1, #115	; 0x73
 8002a8e:	f000 809d 	beq.w	8002bcc <_printf_i+0x1a4>
 8002a92:	d808      	bhi.n	8002aa6 <_printf_i+0x7e>
 8002a94:	296f      	cmp	r1, #111	; 0x6f
 8002a96:	d020      	beq.n	8002ada <_printf_i+0xb2>
 8002a98:	2970      	cmp	r1, #112	; 0x70
 8002a9a:	d1dd      	bne.n	8002a58 <_printf_i+0x30>
 8002a9c:	6823      	ldr	r3, [r4, #0]
 8002a9e:	f043 0320 	orr.w	r3, r3, #32
 8002aa2:	6023      	str	r3, [r4, #0]
 8002aa4:	e003      	b.n	8002aae <_printf_i+0x86>
 8002aa6:	2975      	cmp	r1, #117	; 0x75
 8002aa8:	d017      	beq.n	8002ada <_printf_i+0xb2>
 8002aaa:	2978      	cmp	r1, #120	; 0x78
 8002aac:	d1d4      	bne.n	8002a58 <_printf_i+0x30>
 8002aae:	2378      	movs	r3, #120	; 0x78
 8002ab0:	f884 3045 	strb.w	r3, [r4, #69]	; 0x45
 8002ab4:	4864      	ldr	r0, [pc, #400]	; (8002c48 <_printf_i+0x220>)
 8002ab6:	e055      	b.n	8002b64 <_printf_i+0x13c>
 8002ab8:	6813      	ldr	r3, [r2, #0]
 8002aba:	1d19      	adds	r1, r3, #4
 8002abc:	681b      	ldr	r3, [r3, #0]
 8002abe:	6011      	str	r1, [r2, #0]
 8002ac0:	f104 0542 	add.w	r5, r4, #66	; 0x42
 8002ac4:	f884 3042 	strb.w	r3, [r4, #66]	; 0x42
 8002ac8:	2301      	movs	r3, #1
 8002aca:	e08c      	b.n	8002be6 <_printf_i+0x1be>
 8002acc:	681b      	ldr	r3, [r3, #0]
 8002ace:	6011      	str	r1, [r2, #0]
 8002ad0:	f010 0f40 	tst.w	r0, #64	; 0x40
 8002ad4:	bf18      	it	ne
 8002ad6:	b21b      	sxthne	r3, r3
 8002ad8:	e7cf      	b.n	8002a7a <_printf_i+0x52>
 8002ada:	6813      	ldr	r3, [r2, #0]
 8002adc:	6825      	ldr	r5, [r4, #0]
 8002ade:	1d18      	adds	r0, r3, #4
 8002ae0:	6010      	str	r0, [r2, #0]
 8002ae2:	0628      	lsls	r0, r5, #24
 8002ae4:	d501      	bpl.n	8002aea <_printf_i+0xc2>
 8002ae6:	681b      	ldr	r3, [r3, #0]
 8002ae8:	e002      	b.n	8002af0 <_printf_i+0xc8>
 8002aea:	0668      	lsls	r0, r5, #25
 8002aec:	d5fb      	bpl.n	8002ae6 <_printf_i+0xbe>
 8002aee:	881b      	ldrh	r3, [r3, #0]
 8002af0:	4854      	ldr	r0, [pc, #336]	; (8002c44 <_printf_i+0x21c>)
 8002af2:	296f      	cmp	r1, #111	; 0x6f
 8002af4:	bf14      	ite	ne
 8002af6:	220a      	movne	r2, #10
 8002af8:	2208      	moveq	r2, #8
 8002afa:	2100      	movs	r1, #0
 8002afc:	f884 1043 	strb.w	r1, [r4, #67]	; 0x43
 8002b00:	6865      	ldr	r5, [r4, #4]
 8002b02:	60a5      	str	r5, [r4, #8]
 8002b04:	2d00      	cmp	r5, #0
 8002b06:	f2c0 8095 	blt.w	8002c34 <_printf_i+0x20c>
 8002b0a:	6821      	ldr	r1, [r4, #0]
 8002b0c:	f021 0104 	bic.w	r1, r1, #4
 8002b10:	6021      	str	r1, [r4, #0]
 8002b12:	2b00      	cmp	r3, #0
 8002b14:	d13d      	bne.n	8002b92 <_printf_i+0x16a>
 8002b16:	2d00      	cmp	r5, #0
 8002b18:	f040 808e 	bne.w	8002c38 <_printf_i+0x210>
 8002b1c:	4665      	mov	r5, ip
 8002b1e:	2a08      	cmp	r2, #8
 8002b20:	d10b      	bne.n	8002b3a <_printf_i+0x112>
 8002b22:	6823      	ldr	r3, [r4, #0]
 8002b24:	07db      	lsls	r3, r3, #31
 8002b26:	d508      	bpl.n	8002b3a <_printf_i+0x112>
 8002b28:	6923      	ldr	r3, [r4, #16]
 8002b2a:	6862      	ldr	r2, [r4, #4]
 8002b2c:	429a      	cmp	r2, r3
 8002b2e:	bfde      	ittt	le
 8002b30:	2330      	movle	r3, #48	; 0x30
 8002b32:	f805 3c01 	strble.w	r3, [r5, #-1]
 8002b36:	f105 35ff 	addle.w	r5, r5, #4294967295
 8002b3a:	ebac 0305 	sub.w	r3, ip, r5
 8002b3e:	6123      	str	r3, [r4, #16]
 8002b40:	f8cd 8000 	str.w	r8, [sp]
 8002b44:	463b      	mov	r3, r7
 8002b46:	aa03      	add	r2, sp, #12
 8002b48:	4621      	mov	r1, r4
 8002b4a:	4630      	mov	r0, r6
 8002b4c:	f7ff fef6 	bl	800293c <_printf_common>
 8002b50:	3001      	adds	r0, #1
 8002b52:	d14d      	bne.n	8002bf0 <_printf_i+0x1c8>
 8002b54:	f04f 30ff 	mov.w	r0, #4294967295
 8002b58:	b005      	add	sp, #20
 8002b5a:	e8bd 83f0 	ldmia.w	sp!, {r4, r5, r6, r7, r8, r9, pc}
 8002b5e:	4839      	ldr	r0, [pc, #228]	; (8002c44 <_printf_i+0x21c>)
 8002b60:	f884 1045 	strb.w	r1, [r4, #69]	; 0x45
 8002b64:	6813      	ldr	r3, [r2, #0]
 8002b66:	6821      	ldr	r1, [r4, #0]
 8002b68:	1d1d      	adds	r5, r3, #4
 8002b6a:	681b      	ldr	r3, [r3, #0]
 8002b6c:	6015      	str	r5, [r2, #0]
 8002b6e:	060a      	lsls	r2, r1, #24
 8002b70:	d50b      	bpl.n	8002b8a <_printf_i+0x162>
 8002b72:	07ca      	lsls	r2, r1, #31
 8002b74:	bf44      	itt	mi
 8002b76:	f041 0120 	orrmi.w	r1, r1, #32
 8002b7a:	6021      	strmi	r1, [r4, #0]
 8002b7c:	b91b      	cbnz	r3, 8002b86 <_printf_i+0x15e>
 8002b7e:	6822      	ldr	r2, [r4, #0]
 8002b80:	f022 0220 	bic.w	r2, r2, #32
 8002b84:	6022      	str	r2, [r4, #0]
 8002b86:	2210      	movs	r2, #16
 8002b88:	e7b7      	b.n	8002afa <_printf_i+0xd2>
 8002b8a:	064d      	lsls	r5, r1, #25
 8002b8c:	bf48      	it	mi
 8002b8e:	b29b      	uxthmi	r3, r3
 8002b90:	e7ef      	b.n	8002b72 <_printf_i+0x14a>
 8002b92:	4665      	mov	r5, ip
 8002b94:	fbb3 f1f2 	udiv	r1, r3, r2
 8002b98:	fb02 3311 	mls	r3, r2, r1, r3
 8002b9c:	5cc3      	ldrb	r3, [r0, r3]
 8002b9e:	f805 3d01 	strb.w	r3, [r5, #-1]!
 8002ba2:	460b      	mov	r3, r1
 8002ba4:	2900      	cmp	r1, #0
 8002ba6:	d1f5      	bne.n	8002b94 <_printf_i+0x16c>
 8002ba8:	e7b9      	b.n	8002b1e <_printf_i+0xf6>
 8002baa:	6813      	ldr	r3, [r2, #0]
 8002bac:	6825      	ldr	r5, [r4, #0]
 8002bae:	6961      	ldr	r1, [r4, #20]
 8002bb0:	1d18      	adds	r0, r3, #4
 8002bb2:	6010      	str	r0, [r2, #0]
 8002bb4:	0628      	lsls	r0, r5, #24
 8002bb6:	681b      	ldr	r3, [r3, #0]
 8002bb8:	d501      	bpl.n	8002bbe <_printf_i+0x196>
 8002bba:	6019      	str	r1, [r3, #0]
 8002bbc:	e002      	b.n	8002bc4 <_printf_i+0x19c>
 8002bbe:	066a      	lsls	r2, r5, #25
 8002bc0:	d5fb      	bpl.n	8002bba <_printf_i+0x192>
 8002bc2:	8019      	strh	r1, [r3, #0]
 8002bc4:	2300      	movs	r3, #0
 8002bc6:	6123      	str	r3, [r4, #16]
 8002bc8:	4665      	mov	r5, ip
 8002bca:	e7b9      	b.n	8002b40 <_printf_i+0x118>
 8002bcc:	6813      	ldr	r3, [r2, #0]
 8002bce:	1d19      	adds	r1, r3, #4
 8002bd0:	6011      	str	r1, [r2, #0]
 8002bd2:	681d      	ldr	r5, [r3, #0]
 8002bd4:	6862      	ldr	r2, [r4, #4]
 8002bd6:	2100      	movs	r1, #0
 8002bd8:	4628      	mov	r0, r5
 8002bda:	f7fd fb11 	bl	8000200 <memchr>
 8002bde:	b108      	cbz	r0, 8002be4 <_printf_i+0x1bc>
 8002be0:	1b40      	subs	r0, r0, r5
 8002be2:	6060      	str	r0, [r4, #4]
 8002be4:	6863      	ldr	r3, [r4, #4]
 8002be6:	6123      	str	r3, [r4, #16]
 8002be8:	2300      	movs	r3, #0
 8002bea:	f884 3043 	strb.w	r3, [r4, #67]	; 0x43
 8002bee:	e7a7      	b.n	8002b40 <_printf_i+0x118>
 8002bf0:	6923      	ldr	r3, [r4, #16]
 8002bf2:	462a      	mov	r2, r5
 8002bf4:	4639      	mov	r1, r7
 8002bf6:	4630      	mov	r0, r6
 8002bf8:	47c0      	blx	r8
 8002bfa:	3001      	adds	r0, #1
 8002bfc:	d0aa      	beq.n	8002b54 <_printf_i+0x12c>
 8002bfe:	6823      	ldr	r3, [r4, #0]
 8002c00:	079b      	lsls	r3, r3, #30
 8002c02:	d413      	bmi.n	8002c2c <_printf_i+0x204>
 8002c04:	68e0      	ldr	r0, [r4, #12]
 8002c06:	9b03      	ldr	r3, [sp, #12]
 8002c08:	4298      	cmp	r0, r3
 8002c0a:	bfb8      	it	lt
 8002c0c:	4618      	movlt	r0, r3
 8002c0e:	e7a3      	b.n	8002b58 <_printf_i+0x130>
 8002c10:	2301      	movs	r3, #1
 8002c12:	464a      	mov	r2, r9
 8002c14:	4639      	mov	r1, r7
 8002c16:	4630      	mov	r0, r6
 8002c18:	47c0      	blx	r8
 8002c1a:	3001      	adds	r0, #1
 8002c1c:	d09a      	beq.n	8002b54 <_printf_i+0x12c>
 8002c1e:	3501      	adds	r5, #1
 8002c20:	68e3      	ldr	r3, [r4, #12]
 8002c22:	9a03      	ldr	r2, [sp, #12]
 8002c24:	1a9b      	subs	r3, r3, r2
 8002c26:	42ab      	cmp	r3, r5
 8002c28:	dcf2      	bgt.n	8002c10 <_printf_i+0x1e8>
 8002c2a:	e7eb      	b.n	8002c04 <_printf_i+0x1dc>
 8002c2c:	2500      	movs	r5, #0
 8002c2e:	f104 0919 	add.w	r9, r4, #25
 8002c32:	e7f5      	b.n	8002c20 <_printf_i+0x1f8>
 8002c34:	2b00      	cmp	r3, #0
 8002c36:	d1ac      	bne.n	8002b92 <_printf_i+0x16a>
 8002c38:	7803      	ldrb	r3, [r0, #0]
 8002c3a:	f884 3042 	strb.w	r3, [r4, #66]	; 0x42
 8002c3e:	f104 0542 	add.w	r5, r4, #66	; 0x42
 8002c42:	e76c      	b.n	8002b1e <_printf_i+0xf6>
 8002c44:	080032a2 	.word	0x080032a2
 8002c48:	080032b3 	.word	0x080032b3

08002c4c <_free_r>:
 8002c4c:	b538      	push	{r3, r4, r5, lr}
 8002c4e:	4605      	mov	r5, r0
 8002c50:	2900      	cmp	r1, #0
 8002c52:	d045      	beq.n	8002ce0 <_free_r+0x94>
 8002c54:	f851 3c04 	ldr.w	r3, [r1, #-4]
 8002c58:	1f0c      	subs	r4, r1, #4
 8002c5a:	2b00      	cmp	r3, #0
 8002c5c:	bfb8      	it	lt
 8002c5e:	18e4      	addlt	r4, r4, r3
 8002c60:	f000 f8d2 	bl	8002e08 <__malloc_lock>
 8002c64:	4a1f      	ldr	r2, [pc, #124]	; (8002ce4 <_free_r+0x98>)
 8002c66:	6813      	ldr	r3, [r2, #0]
 8002c68:	4610      	mov	r0, r2
 8002c6a:	b933      	cbnz	r3, 8002c7a <_free_r+0x2e>
 8002c6c:	6063      	str	r3, [r4, #4]
 8002c6e:	6014      	str	r4, [r2, #0]
 8002c70:	4628      	mov	r0, r5
 8002c72:	e8bd 4038 	ldmia.w	sp!, {r3, r4, r5, lr}
 8002c76:	f000 b8c8 	b.w	8002e0a <__malloc_unlock>
 8002c7a:	42a3      	cmp	r3, r4
 8002c7c:	d90c      	bls.n	8002c98 <_free_r+0x4c>
 8002c7e:	6821      	ldr	r1, [r4, #0]
 8002c80:	1862      	adds	r2, r4, r1
 8002c82:	4293      	cmp	r3, r2
 8002c84:	bf04      	itt	eq
 8002c86:	681a      	ldreq	r2, [r3, #0]
 8002c88:	685b      	ldreq	r3, [r3, #4]
 8002c8a:	6063      	str	r3, [r4, #4]
 8002c8c:	bf04      	itt	eq
 8002c8e:	1852      	addeq	r2, r2, r1
 8002c90:	6022      	streq	r2, [r4, #0]
 8002c92:	6004      	str	r4, [r0, #0]
 8002c94:	e7ec      	b.n	8002c70 <_free_r+0x24>
 8002c96:	4613      	mov	r3, r2
 8002c98:	685a      	ldr	r2, [r3, #4]
 8002c9a:	b10a      	cbz	r2, 8002ca0 <_free_r+0x54>
 8002c9c:	42a2      	cmp	r2, r4
 8002c9e:	d9fa      	bls.n	8002c96 <_free_r+0x4a>
 8002ca0:	6819      	ldr	r1, [r3, #0]
 8002ca2:	1858      	adds	r0, r3, r1
 8002ca4:	42a0      	cmp	r0, r4
 8002ca6:	d10b      	bne.n	8002cc0 <_free_r+0x74>
 8002ca8:	6820      	ldr	r0, [r4, #0]
 8002caa:	4401      	add	r1, r0
 8002cac:	1858      	adds	r0, r3, r1
 8002cae:	4282      	cmp	r2, r0
 8002cb0:	6019      	str	r1, [r3, #0]
 8002cb2:	d1dd      	bne.n	8002c70 <_free_r+0x24>
 8002cb4:	6810      	ldr	r0, [r2, #0]
 8002cb6:	6852      	ldr	r2, [r2, #4]
 8002cb8:	605a      	str	r2, [r3, #4]
 8002cba:	4401      	add	r1, r0
 8002cbc:	6019      	str	r1, [r3, #0]
 8002cbe:	e7d7      	b.n	8002c70 <_free_r+0x24>
 8002cc0:	d902      	bls.n	8002cc8 <_free_r+0x7c>
 8002cc2:	230c      	movs	r3, #12
 8002cc4:	602b      	str	r3, [r5, #0]
 8002cc6:	e7d3      	b.n	8002c70 <_free_r+0x24>
 8002cc8:	6820      	ldr	r0, [r4, #0]
 8002cca:	1821      	adds	r1, r4, r0
 8002ccc:	428a      	cmp	r2, r1
 8002cce:	bf04      	itt	eq
 8002cd0:	6811      	ldreq	r1, [r2, #0]
 8002cd2:	6852      	ldreq	r2, [r2, #4]
 8002cd4:	6062      	str	r2, [r4, #4]
 8002cd6:	bf04      	itt	eq
 8002cd8:	1809      	addeq	r1, r1, r0
 8002cda:	6021      	streq	r1, [r4, #0]
 8002cdc:	605c      	str	r4, [r3, #4]
 8002cde:	e7c7      	b.n	8002c70 <_free_r+0x24>
 8002ce0:	bd38      	pop	{r3, r4, r5, pc}
 8002ce2:	bf00      	nop
 8002ce4:	20000114 	.word	0x20000114

08002ce8 <_malloc_r>:
 8002ce8:	b570      	push	{r4, r5, r6, lr}
 8002cea:	1ccd      	adds	r5, r1, #3
 8002cec:	f025 0503 	bic.w	r5, r5, #3
 8002cf0:	3508      	adds	r5, #8
 8002cf2:	2d0c      	cmp	r5, #12
 8002cf4:	bf38      	it	cc
 8002cf6:	250c      	movcc	r5, #12
 8002cf8:	2d00      	cmp	r5, #0
 8002cfa:	4606      	mov	r6, r0
 8002cfc:	db01      	blt.n	8002d02 <_malloc_r+0x1a>
 8002cfe:	42a9      	cmp	r1, r5
 8002d00:	d903      	bls.n	8002d0a <_malloc_r+0x22>
 8002d02:	230c      	movs	r3, #12
 8002d04:	6033      	str	r3, [r6, #0]
 8002d06:	2000      	movs	r0, #0
 8002d08:	bd70      	pop	{r4, r5, r6, pc}
 8002d0a:	f000 f87d 	bl	8002e08 <__malloc_lock>
 8002d0e:	4a21      	ldr	r2, [pc, #132]	; (8002d94 <_malloc_r+0xac>)
 8002d10:	6814      	ldr	r4, [r2, #0]
 8002d12:	4621      	mov	r1, r4
 8002d14:	b991      	cbnz	r1, 8002d3c <_malloc_r+0x54>
 8002d16:	4c20      	ldr	r4, [pc, #128]	; (8002d98 <_malloc_r+0xb0>)
 8002d18:	6823      	ldr	r3, [r4, #0]
 8002d1a:	b91b      	cbnz	r3, 8002d24 <_malloc_r+0x3c>
 8002d1c:	4630      	mov	r0, r6
 8002d1e:	f000 f863 	bl	8002de8 <_sbrk_r>
 8002d22:	6020      	str	r0, [r4, #0]
 8002d24:	4629      	mov	r1, r5
 8002d26:	4630      	mov	r0, r6
 8002d28:	f000 f85e 	bl	8002de8 <_sbrk_r>
 8002d2c:	1c43      	adds	r3, r0, #1
 8002d2e:	d124      	bne.n	8002d7a <_malloc_r+0x92>
 8002d30:	230c      	movs	r3, #12
 8002d32:	6033      	str	r3, [r6, #0]
 8002d34:	4630      	mov	r0, r6
 8002d36:	f000 f868 	bl	8002e0a <__malloc_unlock>
 8002d3a:	e7e4      	b.n	8002d06 <_malloc_r+0x1e>
 8002d3c:	680b      	ldr	r3, [r1, #0]
 8002d3e:	1b5b      	subs	r3, r3, r5
 8002d40:	d418      	bmi.n	8002d74 <_malloc_r+0x8c>
 8002d42:	2b0b      	cmp	r3, #11
 8002d44:	d90f      	bls.n	8002d66 <_malloc_r+0x7e>
 8002d46:	600b      	str	r3, [r1, #0]
 8002d48:	50cd      	str	r5, [r1, r3]
 8002d4a:	18cc      	adds	r4, r1, r3
 8002d4c:	4630      	mov	r0, r6
 8002d4e:	f000 f85c 	bl	8002e0a <__malloc_unlock>
 8002d52:	f104 000b 	add.w	r0, r4, #11
 8002d56:	1d23      	adds	r3, r4, #4
 8002d58:	f020 0007 	bic.w	r0, r0, #7
 8002d5c:	1ac3      	subs	r3, r0, r3
 8002d5e:	d0d3      	beq.n	8002d08 <_malloc_r+0x20>
 8002d60:	425a      	negs	r2, r3
 8002d62:	50e2      	str	r2, [r4, r3]
 8002d64:	e7d0      	b.n	8002d08 <_malloc_r+0x20>
 8002d66:	428c      	cmp	r4, r1
 8002d68:	684b      	ldr	r3, [r1, #4]
 8002d6a:	bf16      	itet	ne
 8002d6c:	6063      	strne	r3, [r4, #4]
 8002d6e:	6013      	streq	r3, [r2, #0]
 8002d70:	460c      	movne	r4, r1
 8002d72:	e7eb      	b.n	8002d4c <_malloc_r+0x64>
 8002d74:	460c      	mov	r4, r1
 8002d76:	6849      	ldr	r1, [r1, #4]
 8002d78:	e7cc      	b.n	8002d14 <_malloc_r+0x2c>
 8002d7a:	1cc4      	adds	r4, r0, #3
 8002d7c:	f024 0403 	bic.w	r4, r4, #3
 8002d80:	42a0      	cmp	r0, r4
 8002d82:	d005      	beq.n	8002d90 <_malloc_r+0xa8>
 8002d84:	1a21      	subs	r1, r4, r0
 8002d86:	4630      	mov	r0, r6
 8002d88:	f000 f82e 	bl	8002de8 <_sbrk_r>
 8002d8c:	3001      	adds	r0, #1
 8002d8e:	d0cf      	beq.n	8002d30 <_malloc_r+0x48>
 8002d90:	6025      	str	r5, [r4, #0]
 8002d92:	e7db      	b.n	8002d4c <_malloc_r+0x64>
 8002d94:	20000114 	.word	0x20000114
 8002d98:	20000118 	.word	0x20000118

08002d9c <_realloc_r>:
 8002d9c:	b5f8      	push	{r3, r4, r5, r6, r7, lr}
 8002d9e:	4607      	mov	r7, r0
 8002da0:	4614      	mov	r4, r2
 8002da2:	460e      	mov	r6, r1
 8002da4:	b921      	cbnz	r1, 8002db0 <_realloc_r+0x14>
 8002da6:	4611      	mov	r1, r2
 8002da8:	e8bd 40f8 	ldmia.w	sp!, {r3, r4, r5, r6, r7, lr}
 8002dac:	f7ff bf9c 	b.w	8002ce8 <_malloc_r>
 8002db0:	b922      	cbnz	r2, 8002dbc <_realloc_r+0x20>
 8002db2:	f7ff ff4b 	bl	8002c4c <_free_r>
 8002db6:	4625      	mov	r5, r4
 8002db8:	4628      	mov	r0, r5
 8002dba:	bdf8      	pop	{r3, r4, r5, r6, r7, pc}
 8002dbc:	f000 f826 	bl	8002e0c <_malloc_usable_size_r>
 8002dc0:	42a0      	cmp	r0, r4
 8002dc2:	d20f      	bcs.n	8002de4 <_realloc_r+0x48>
 8002dc4:	4621      	mov	r1, r4
 8002dc6:	4638      	mov	r0, r7
 8002dc8:	f7ff ff8e 	bl	8002ce8 <_malloc_r>
 8002dcc:	4605      	mov	r5, r0
 8002dce:	2800      	cmp	r0, #0
 8002dd0:	d0f2      	beq.n	8002db8 <_realloc_r+0x1c>
 8002dd2:	4631      	mov	r1, r6
 8002dd4:	4622      	mov	r2, r4
 8002dd6:	f7ff fc13 	bl	8002600 <memcpy>
 8002dda:	4631      	mov	r1, r6
 8002ddc:	4638      	mov	r0, r7
 8002dde:	f7ff ff35 	bl	8002c4c <_free_r>
 8002de2:	e7e9      	b.n	8002db8 <_realloc_r+0x1c>
 8002de4:	4635      	mov	r5, r6
 8002de6:	e7e7      	b.n	8002db8 <_realloc_r+0x1c>

08002de8 <_sbrk_r>:
 8002de8:	b538      	push	{r3, r4, r5, lr}
 8002dea:	4c06      	ldr	r4, [pc, #24]	; (8002e04 <_sbrk_r+0x1c>)
 8002dec:	2300      	movs	r3, #0
 8002dee:	4605      	mov	r5, r0
 8002df0:	4608      	mov	r0, r1
 8002df2:	6023      	str	r3, [r4, #0]
 8002df4:	f7fd fd42 	bl	800087c <_sbrk>
 8002df8:	1c43      	adds	r3, r0, #1
 8002dfa:	d102      	bne.n	8002e02 <_sbrk_r+0x1a>
 8002dfc:	6823      	ldr	r3, [r4, #0]
 8002dfe:	b103      	cbz	r3, 8002e02 <_sbrk_r+0x1a>
 8002e00:	602b      	str	r3, [r5, #0]
 8002e02:	bd38      	pop	{r3, r4, r5, pc}
 8002e04:	200002c0 	.word	0x200002c0

08002e08 <__malloc_lock>:
 8002e08:	4770      	bx	lr

08002e0a <__malloc_unlock>:
 8002e0a:	4770      	bx	lr

08002e0c <_malloc_usable_size_r>:
 8002e0c:	f851 3c04 	ldr.w	r3, [r1, #-4]
 8002e10:	1f18      	subs	r0, r3, #4
 8002e12:	2b00      	cmp	r3, #0
 8002e14:	bfbc      	itt	lt
 8002e16:	580b      	ldrlt	r3, [r1, r0]
 8002e18:	18c0      	addlt	r0, r0, r3
 8002e1a:	4770      	bx	lr

08002e1c <_init>:
 8002e1c:	b5f8      	push	{r3, r4, r5, r6, r7, lr}
 8002e1e:	bf00      	nop
 8002e20:	bcf8      	pop	{r3, r4, r5, r6, r7}
 8002e22:	bc08      	pop	{r3}
 8002e24:	469e      	mov	lr, r3
 8002e26:	4770      	bx	lr

08002e28 <_fini>:
 8002e28:	b5f8      	push	{r3, r4, r5, r6, r7, lr}
 8002e2a:	bf00      	nop
 8002e2c:	bcf8      	pop	{r3, r4, r5, r6, r7}
 8002e2e:	bc08      	pop	{r3}
 8002e30:	469e      	mov	lr, r3
 8002e32:	4770      	bx	lr
